
hello_world.elf:     file format elf32-littleriscv
hello_world.elf
architecture: riscv:rv32, flags 0x00000112:
EXEC_P, HAS_SYMS, D_PAGED
start address 0x80000000

Program Header:
    LOAD off    0x00001000 vaddr 0x80000000 paddr 0x80000000 align 2**12
         filesz 0x000024dc memsz 0x000024dc flags r-x
    LOAD off    0x00004000 vaddr 0x90000000 paddr 0x800024dc align 2**12
         filesz 0x00000074 memsz 0x00000074 flags rw-
    LOAD off    0x00000074 vaddr 0x90000074 paddr 0x90000074 align 2**12
         filesz 0x00000000 memsz 0x00000154 flags rw-
    LOAD off    0x00000800 vaddr 0x9000f800 paddr 0x900001c8 align 2**12
         filesz 0x00000000 memsz 0x00000800 flags rw-

Sections:
Idx Name              Size      VMA       LMA       File off  Algn  Flags
  0 .init             000000b4  80000000  80000000  00001000  2**0  CONTENTS, ALLOC, LOAD, READONLY, CODE
  1 .ilalign          00000000  800000b4  800000b4  00004074  2**0  CONTENTS
  2 .text             00002062  800000b4  800000b4  000010b4  2**2  CONTENTS, ALLOC, LOAD, READONLY, CODE
  3 .rodata           000003c4  80002118  80002118  00003118  2**2  CONTENTS, ALLOC, LOAD, READONLY, DATA
  4 .lalign           00000000  800024dc  800024dc  00004074  2**0  CONTENTS
  5 .dalign           00000000  90000000  90000000  00004074  2**0  CONTENTS
  6 .data             00000074  90000000  800024dc  00004000  2**2  CONTENTS, ALLOC, LOAD, DATA
  7 .bss              00000154  90000074  90000074  00004074  2**2  ALLOC
  8 .stack            00000800  9000f800  900001c8  00004800  2**0  ALLOC
  9 .debug_info       00003877  00000000  00000000  00004074  2**0  CONTENTS, READONLY, DEBUGGING, OCTETS
 10 .debug_abbrev     0000137e  00000000  00000000  000078eb  2**0  CONTENTS, READONLY, DEBUGGING, OCTETS
 11 .debug_loc        00002089  00000000  00000000  00008c69  2**0  CONTENTS, READONLY, DEBUGGING, OCTETS
 12 .debug_aranges    000003a0  00000000  00000000  0000acf8  2**3  CONTENTS, READONLY, DEBUGGING, OCTETS
 13 .debug_ranges     00000488  00000000  00000000  0000b098  2**0  CONTENTS, READONLY, DEBUGGING, OCTETS
 14 .debug_line       0000416f  00000000  00000000  0000b520  2**0  CONTENTS, READONLY, DEBUGGING, OCTETS
 15 .debug_str        000013b2  00000000  00000000  0000f68f  2**0  CONTENTS, READONLY, DEBUGGING, OCTETS
 16 .comment          00000012  00000000  00000000  00010a41  2**0  CONTENTS, READONLY
 17 .riscv.attributes 0000002f  00000000  00000000  00010a53  2**0  CONTENTS, READONLY
 18 .debug_frame      00000554  00000000  00000000  00010a84  2**2  CONTENTS, READONLY, DEBUGGING, OCTETS
SYMBOL TABLE:
80000000 l    d  .init	00000000 .init
800000b4 l    d  .ilalign	00000000 .ilalign
800000b4 l    d  .text	00000000 .text
80002118 l    d  .rodata	00000000 .rodata
800024dc l    d  .lalign	00000000 .lalign
90000000 l    d  .dalign	00000000 .dalign
90000000 l    d  .data	00000000 .data
90000074 l    d  .bss	00000000 .bss
9000f800 l    d  .stack	00000000 .stack
00000000 l    d  .debug_info	00000000 .debug_info
00000000 l    d  .debug_abbrev	00000000 .debug_abbrev
00000000 l    d  .debug_loc	00000000 .debug_loc
00000000 l    d  .debug_aranges	00000000 .debug_aranges
00000000 l    d  .debug_ranges	00000000 .debug_ranges
00000000 l    d  .debug_line	00000000 .debug_line
00000000 l    d  .debug_str	00000000 .debug_str
00000000 l    d  .comment	00000000 .comment
00000000 l    d  .riscv.attributes	00000000 .riscv.attributes
00000000 l    d  .debug_frame	00000000 .debug_frame
00000000 l    df *ABS*	00000000 main.c
9000011c l     O .bss	0000001e misa_chars.0
00000000 l    df *ABS*	00000000 close.c
00000000 l    df *ABS*	00000000 exit.c
00000000 l    df *ABS*	00000000 fstat.c
00000000 l    df *ABS*	00000000 getpid.c
00000000 l    df *ABS*	00000000 isatty.c
00000000 l    df *ABS*	00000000 kill.c
00000000 l    df *ABS*	00000000 lseek.c
00000000 l    df *ABS*	00000000 read.c
00000000 l    df *ABS*	00000000 sbrk.c
90000060 l     O .data	00000004 curbrk.0
00000000 l    df *ABS*	00000000 write.c
00000000 l    df *ABS*	00000000 hbirdv2_gpio.c
00000000 l    df *ABS*	00000000 hbirdv2_uart.c
00000000 l    df *ABS*	00000000 hbirdv2_common.c
00000000 l    df *ABS*	00000000 system_hbirdv2.c
800003f8 l     F .text	00000044 system_default_exception_handler
8000043c l     F .text	00000048 system_default_interrupt_handler
90000084 l     O .bss	00000028 SystemCoreInterruptHandlers
900000ac l     O .bss	0000002c SystemExceptionHandlers
900000d8 l     O .bss	00000044 SystemExtInterruptHandlers
00000000 l    df *ABS*	00000000 libgcc2.c
00000000 l    df *ABS*	00000000 atexit.c
00000000 l    df *ABS*	00000000 fini.c
00000000 l    df *ABS*	00000000 init.c
00000000 l    df *ABS*	00000000 printf.c
00000000 l    df *ABS*	00000000 puts.c
00000000 l    df *ABS*	00000000 rand.c
00000000 l    df *ABS*	00000000 sysisatty.c
00000000 l    df *ABS*	00000000 wbuf.c
00000000 l    df *ABS*	00000000 wsetup.c
00000000 l    df *ABS*	00000000 __atexit.c
9000013c l     O .bss	0000008c _global_atexit0
00000000 l    df *ABS*	00000000 assert.c
00000000 l    df *ABS*	00000000 fflush.c
00000000 l    df *ABS*	00000000 findfp.c
80001292 l     F .text	00000068 std
00000000 l    df *ABS*	00000000 fprintf.c
00000000 l    df *ABS*	00000000 fwalk.c
00000000 l    df *ABS*	00000000 makebuf.c
00000000 l    df *ABS*	00000000 malloc.c
00000000 l    df *ABS*	00000000 nano-mallocr.c
00000000 l    df *ABS*	00000000 nano-mallocr.c
00000000 l    df *ABS*	00000000 nano-vfprintf.c
800017f6 l     F .text	0000002a __sfputc_r
00000000 l    df *ABS*	00000000 nano-vfprintf_i.c
00000000 l    df *ABS*	00000000 sbrkr.c
00000000 l    df *ABS*	00000000 stdio.c
00000000 l    df *ABS*	00000000 writer.c
00000000 l    df *ABS*	00000000 abort.c
00000000 l    df *ABS*	00000000 closer.c
00000000 l    df *ABS*	00000000 fstatr.c
00000000 l    df *ABS*	00000000 isattyr.c
00000000 l    df *ABS*	00000000 lseekr.c
00000000 l    df *ABS*	00000000 memchr.c
00000000 l    df *ABS*	00000000 mlock.c
00000000 l    df *ABS*	00000000 readr.c
00000000 l    df *ABS*	00000000 signal.c
00000000 l    df *ABS*	00000000 signalr.c
00000000 l    df *ABS*	00000000 libgcc2.c
00000000 l    df *ABS*	00000000 impure.c
90000000 l     O .data	00000060 impure_data
00000000 l    df *ABS*	00000000 
800024dc l       .rodata	00000000 __fini_array_end
800024dc l       .rodata	00000000 __fini_array_start
800024dc l       .rodata	00000000 __init_array_end
800024dc l       .rodata	00000000 __preinit_array_end
800024dc l       .rodata	00000000 __init_array_start
800024dc l       .rodata	00000000 __preinit_array_start
80001fe0 g     F .text	00000028 _isatty_r
800001a4  w    F .text	00000004 _getpid
80000c7e g     F .text	000000da _puts_r
80002008 g     F .text	0000002c _lseek_r
800020e8 g     F .text	0000002a _kill_r
80000c44 g     F .text	0000003a printf
90000860 g       .data	00000000 __global_pointer$
80001f18 g     F .text	00000036 __sseek
80001348 g     F .text	00000066 __sinit
80000e76 g     F .text	000000c0 __swbuf_r
80001304 g     F .text	00000044 __sfmoreglue
80002050 g     F .text	00000002 __malloc_unlock
80001fb6 g     F .text	0000002a _fstat_r
90000074 g     O .bss	00000004 errno
00000800 g       *ABS*	00000000 __stack_size
80000354 g     F .text	00000014 uart_write
800024dc g       .rodata	00000000 __rt_init_start
800024dc g       .rodata	00000000 __fsymtab_end
800000b4 g       .ilalign	00000000 _ilm_lma
800012fa g     F .text	0000000a _cleanup_r
80000d58 g     F .text	00000008 puts
800024dc g       .rodata	00000000 __rt_init_end
90000064 g     O .data	00000004 SystemCoreClock
80000308 g     F .text	00000012 gpio_toggle
800015ce g     F .text	00000008 malloc
80000e72 g     F .text	00000004 isatty
8000207e g     F .text	00000062 _raise_r
8000018a  w    F .text	0000001a _fstat
800010b0 g     F .text	00000038 __assert_func
800003e6 g     F .text	00000012 get_cpu_freq
80002112 g     F .text	00000004 _getpid_r
80001e72 g     F .text	00000028 _sbrk_r
80002052 g     F .text	0000002c _read_r
800024dc g       .rodata	00000000 _eilm
9000f800 g       .stack	00000000 _heap_end
800001a8  w    F .text	00000004 _isatty
90000070 g     O .data	00000004 _global_impure_ptr
80000be6 g     F .text	0000005e __libc_init_array
80000846 g     F .text	00000360 .hidden __udivdi3
80001f80 g     F .text	0000000e abort
800001dc  w    F .text	0000002c _sbrk
8000060a g     F .text	00000002 _init
80000bb0 g     F .text	00000036 __libc_fini_array
800000b4 g       .ilalign	00000000 _ilm
80000522 g     F .text	000000e6 _premain_init
80001446 g     F .text	00000024 fprintf
800023e8 g     O .rodata	00000020 __sf_fake_stderr
80000492 g     F .text	00000090 core_trap_handler
80001820 g     F .text	00000042 __sfputs_r
8000031a g     F .text	0000003a uart_init
80002034 g     F .text	0000001a memchr
8000167e g     F .text	000000a2 _free_r
90000078 g     O .bss	00000004 _global_atexit
90010000 g       .stack	00000000 _sp
80000000 g     F .init	00000000 _start
80000dd2 g     F .text	000000a0 rand
800001b6  w    F .text	00000004 _lseek
8000103c g     F .text	00000074 __register_exitproc
80001f8e g     F .text	00000028 _close_r
80000f36 g     F .text	00000106 __swsetup_r
800013ae g     F .text	00000098 __sfp
80001e9a g     F .text	00000030 __sread
8000204e g     F .text	00000002 __malloc_lock
8000122e g     F .text	00000064 _fflush_r
80002408 g     O .rodata	00000020 __sf_fake_stdin
90000074 g       .bss	00000000 __bss_start
800015d6 g     F .text	000000a8 memset
800000b4 g     F .text	000000c6 main
8000026c  w      .text	00000000 trap_entry
80000d60 g     F .text	00000072 srand
80001f4e g     F .text	00000006 __sclose
80001720 g     F .text	000000d6 _malloc_r
800024dc g       .rodata	00000000 __vsymtab_start
80000484 g     F .text	0000000e SystemInit
8000060c g     F .text	00000002 _fini
80000c44 g     F .text	0000003a iprintf
8000223c g     O .rodata	00000100 .hidden __clz_tab
800002f6 g     F .text	00000012 gpio_enable_output
80000ba6 g     F .text	0000000a atexit
80001f54 g     F .text	0000002c _write_r
80001af6 g     F .text	0000010c _printf_common
90000068 g     O .data	00000004 _impure_ptr
800010e8 g     F .text	00000146 __sflush_r
90000000 g       .dalign	00000000 _data
800024dc g       .rodata	00000000 __vsymtab_end
8000037e g     F .text	00000068 measure_cpu_freq
800014d4 g     F .text	0000005c __swhatbuf_r
80000208  w    F .text	00000062 _write
90000074 g       .bss	00000000 _edata
80000608 g     F .text	00000002 _postmain_fini
900001c8 g       .bss	00000000 _end
800024dc g       .lalign	00000000 _data_lma
80000368 g     F .text	00000016 uart_read
80001eca g     F .text	0000004e __swrite
80001446 g     F .text	00000024 fiprintf
80001862 g     F .text	00000294 _vfiprintf_r
8000146a g     F .text	0000006a _fwalk_reent
800001ac  w    F .text	0000000a _kill
80002428 g     O .rodata	00000020 __sf_fake_stdout
8000060e g     F .text	00000238 print_misa
800001ba  w    F .text	00000022 _read
80000184  w    F .text	00000006 _exit
80001530 g     F .text	0000009e __smakebuf_r
80001c02 g     F .text	00000270 _printf_i
90000080 g     O .bss	00000004 __malloc_sbrk_start
9000007c g     O .bss	00000004 __malloc_free_list
800024dc g       .rodata	00000000 __fsymtab_start
80001862 g     F .text	00000294 _vfprintf_r
800002e4 g     F .text	00000012 gpio_iof_config
800020e0 g     F .text	00000008 raise
8000017a  w    F .text	0000000a _close



Disassembly of section .init:

80000000 <_start>:
_start():
D:\e203_35T\nuclei_project\hello_world\Debug/../hbird_sdk/SoC/hbirdv2/Common/Source/GCC/startup_hbirdv2.S:40
 * Reset Handler called on controller reset
 */
_start:
    /* ===== Startup Stage 1 ===== */
    /* Disable Global Interrupt */
    csrc CSR_MSTATUS, MSTATUS_MIE
80000000:	30047073          	csrci	mstatus,8
D:\e203_35T\nuclei_project\hello_world\Debug/../hbird_sdk/SoC/hbirdv2/Common/Source/GCC/startup_hbirdv2.S:42
    /* Disable all interrupts controlled by CSR MIE */
    csrw CSR_MIE, 0x0
80000004:	30405073          	csrwi	mie,0
D:\e203_35T\nuclei_project\hello_world\Debug/../hbird_sdk/SoC/hbirdv2/Common/Source/GCC/startup_hbirdv2.S:47

    /* Initialize GP and Stack Pointer SP */
    .option push
    .option norelax
    la gp, __global_pointer$
80000008:	10001197          	auipc	gp,0x10001
8000000c:	85818193          	addi	gp,gp,-1960 # 90000860 <__global_pointer$>
D:\e203_35T\nuclei_project\hello_world\Debug/../hbird_sdk/SoC/hbirdv2/Common/Source/GCC/startup_hbirdv2.S:49
    .option pop
    la sp, _sp
80000010:	10010117          	auipc	sp,0x10010
80000014:	ff010113          	addi	sp,sp,-16 # 90010000 <_sp>
D:\e203_35T\nuclei_project\hello_world\Debug/../hbird_sdk/SoC/hbirdv2/Common/Source/GCC/startup_hbirdv2.S:54

    /*
     * Set Trap Entry MTVEC to trap_entry
     */
    la t0, trap_entry
80000018:	00000297          	auipc	t0,0x0
8000001c:	25428293          	addi	t0,t0,596 # 8000026c <trap_entry>
D:\e203_35T\nuclei_project\hello_world\Debug/../hbird_sdk/SoC/hbirdv2/Common/Source/GCC/startup_hbirdv2.S:55
    csrw CSR_MTVEC, t0
80000020:	30529073          	csrw	mtvec,t0
D:\e203_35T\nuclei_project\hello_world\Debug/../hbird_sdk/SoC/hbirdv2/Common/Source/GCC/startup_hbirdv2.S:58

    /* Direct Mode: All exceptions set pc to BASE. */
    csrc CSR_MTVEC, 0x3
80000024:	3051f073          	csrci	mtvec,3
D:\e203_35T\nuclei_project\hello_world\Debug/../hbird_sdk/SoC/hbirdv2/Common/Source/GCC/startup_hbirdv2.S:74
    /* ===== Startup Stage 3 ===== */
    /*
     * Load code section frm FLASH to ILM
     * when code LMA is different with VMA
     */
    la a0, _ilm_lma
80000028:	00000517          	auipc	a0,0x0
8000002c:	08c50513          	addi	a0,a0,140 # 800000b4 <main>
D:\e203_35T\nuclei_project\hello_world\Debug/../hbird_sdk/SoC/hbirdv2/Common/Source/GCC/startup_hbirdv2.S:75
    la a1, _ilm
80000030:	00000597          	auipc	a1,0x0
80000034:	08458593          	addi	a1,a1,132 # 800000b4 <main>
D:\e203_35T\nuclei_project\hello_world\Debug/../hbird_sdk/SoC/hbirdv2/Common/Source/GCC/startup_hbirdv2.S:77
    /* If the ILM phy-address same as the logic-address, then quit */
    beq a0, a1, 2f
80000038:	02b50063          	beq	a0,a1,80000058 <_start+0x58>
D:\e203_35T\nuclei_project\hello_world\Debug/../hbird_sdk/SoC/hbirdv2/Common/Source/GCC/startup_hbirdv2.S:78
    la a2, _eilm
8000003c:	00002617          	auipc	a2,0x2
80000040:	4a060613          	addi	a2,a2,1184 # 800024dc <__fsymtab_end>
D:\e203_35T\nuclei_project\hello_world\Debug/../hbird_sdk/SoC/hbirdv2/Common/Source/GCC/startup_hbirdv2.S:79
    bgeu a1, a2, 2f
80000044:	00c5fa63          	bgeu	a1,a2,80000058 <_start+0x58>
D:\e203_35T\nuclei_project\hello_world\Debug/../hbird_sdk/SoC/hbirdv2/Common/Source/GCC/startup_hbirdv2.S:83

1:
    /* Load code section if necessary */
    lw t0, (a0)
80000048:	00052283          	lw	t0,0(a0)
D:\e203_35T\nuclei_project\hello_world\Debug/../hbird_sdk/SoC/hbirdv2/Common/Source/GCC/startup_hbirdv2.S:84
    sw t0, (a1)
8000004c:	0055a023          	sw	t0,0(a1)
D:\e203_35T\nuclei_project\hello_world\Debug/../hbird_sdk/SoC/hbirdv2/Common/Source/GCC/startup_hbirdv2.S:85
    addi a0, a0, 4
80000050:	0511                	addi	a0,a0,4
D:\e203_35T\nuclei_project\hello_world\Debug/../hbird_sdk/SoC/hbirdv2/Common/Source/GCC/startup_hbirdv2.S:86
    addi a1, a1, 4
80000052:	0591                	addi	a1,a1,4
D:\e203_35T\nuclei_project\hello_world\Debug/../hbird_sdk/SoC/hbirdv2/Common/Source/GCC/startup_hbirdv2.S:87
    bltu a1, a2, 1b
80000054:	fec5eae3          	bltu	a1,a2,80000048 <_start+0x48>
D:\e203_35T\nuclei_project\hello_world\Debug/../hbird_sdk/SoC/hbirdv2/Common/Source/GCC/startup_hbirdv2.S:90
2:
    /* Load data section */
    la a0, _data_lma
80000058:	00002517          	auipc	a0,0x2
8000005c:	48450513          	addi	a0,a0,1156 # 800024dc <__fsymtab_end>
D:\e203_35T\nuclei_project\hello_world\Debug/../hbird_sdk/SoC/hbirdv2/Common/Source/GCC/startup_hbirdv2.S:91
    la a1, _data
80000060:	10000597          	auipc	a1,0x10000
80000064:	fa058593          	addi	a1,a1,-96 # 90000000 <impure_data>
D:\e203_35T\nuclei_project\hello_world\Debug/../hbird_sdk/SoC/hbirdv2/Common/Source/GCC/startup_hbirdv2.S:92
    la a2, _edata
80000068:	81418613          	addi	a2,gp,-2028 # 90000074 <errno>
D:\e203_35T\nuclei_project\hello_world\Debug/../hbird_sdk/SoC/hbirdv2/Common/Source/GCC/startup_hbirdv2.S:93
    bgeu a1, a2, 2f
8000006c:	00c5fa63          	bgeu	a1,a2,80000080 <_start+0x80>
D:\e203_35T\nuclei_project\hello_world\Debug/../hbird_sdk/SoC/hbirdv2/Common/Source/GCC/startup_hbirdv2.S:95
1:
    lw t0, (a0)
80000070:	00052283          	lw	t0,0(a0)
D:\e203_35T\nuclei_project\hello_world\Debug/../hbird_sdk/SoC/hbirdv2/Common/Source/GCC/startup_hbirdv2.S:96
    sw t0, (a1)
80000074:	0055a023          	sw	t0,0(a1)
D:\e203_35T\nuclei_project\hello_world\Debug/../hbird_sdk/SoC/hbirdv2/Common/Source/GCC/startup_hbirdv2.S:97
    addi a0, a0, 4
80000078:	0511                	addi	a0,a0,4
D:\e203_35T\nuclei_project\hello_world\Debug/../hbird_sdk/SoC/hbirdv2/Common/Source/GCC/startup_hbirdv2.S:98
    addi a1, a1, 4
8000007a:	0591                	addi	a1,a1,4
D:\e203_35T\nuclei_project\hello_world\Debug/../hbird_sdk/SoC/hbirdv2/Common/Source/GCC/startup_hbirdv2.S:99
    bltu a1, a2, 1b
8000007c:	fec5eae3          	bltu	a1,a2,80000070 <_start+0x70>
D:\e203_35T\nuclei_project\hello_world\Debug/../hbird_sdk/SoC/hbirdv2/Common/Source/GCC/startup_hbirdv2.S:102
2:
    /* Clear bss section */
    la a0, __bss_start
80000080:	81418513          	addi	a0,gp,-2028 # 90000074 <errno>
D:\e203_35T\nuclei_project\hello_world\Debug/../hbird_sdk/SoC/hbirdv2/Common/Source/GCC/startup_hbirdv2.S:103
    la a1, _end
80000084:	96818593          	addi	a1,gp,-1688 # 900001c8 <_end>
D:\e203_35T\nuclei_project\hello_world\Debug/../hbird_sdk/SoC/hbirdv2/Common/Source/GCC/startup_hbirdv2.S:104
    bgeu a0, a1, 2f
80000088:	00b57763          	bgeu	a0,a1,80000096 <_start+0x96>
D:\e203_35T\nuclei_project\hello_world\Debug/../hbird_sdk/SoC/hbirdv2/Common/Source/GCC/startup_hbirdv2.S:106
1:
    sw zero, (a0)
8000008c:	00052023          	sw	zero,0(a0)
D:\e203_35T\nuclei_project\hello_world\Debug/../hbird_sdk/SoC/hbirdv2/Common/Source/GCC/startup_hbirdv2.S:107
    addi a0, a0, 4
80000090:	0511                	addi	a0,a0,4
D:\e203_35T\nuclei_project\hello_world\Debug/../hbird_sdk/SoC/hbirdv2/Common/Source/GCC/startup_hbirdv2.S:108
    bltu a0, a1, 1b
80000092:	feb56de3          	bltu	a0,a1,8000008c <_start+0x8c>
D:\e203_35T\nuclei_project\hello_world\Debug/../hbird_sdk/SoC/hbirdv2/Common/Source/GCC/startup_hbirdv2.S:115

    /*
     * Call vendor defined SystemInit to
     * initialize the micro-controller system
     */
    call SystemInit
80000096:	26fd                	jal	80000484 <SystemInit>
D:\e203_35T\nuclei_project\hello_world\Debug/../hbird_sdk/SoC/hbirdv2/Common/Source/GCC/startup_hbirdv2.S:118

    /* Call global constructors */
    la a0, __libc_fini_array
80000098:	00001517          	auipc	a0,0x1
8000009c:	b1850513          	addi	a0,a0,-1256 # 80000bb0 <__libc_fini_array>
D:\e203_35T\nuclei_project\hello_world\Debug/../hbird_sdk/SoC/hbirdv2/Common/Source/GCC/startup_hbirdv2.S:119
    call atexit
800000a0:	307000ef          	jal	ra,80000ba6 <atexit>
D:\e203_35T\nuclei_project\hello_world\Debug/../hbird_sdk/SoC/hbirdv2/Common/Source/GCC/startup_hbirdv2.S:121
    /* Call C/C++ constructor start up code */
    call __libc_init_array
800000a4:	343000ef          	jal	ra,80000be6 <__libc_init_array>
D:\e203_35T\nuclei_project\hello_world\Debug/../hbird_sdk/SoC/hbirdv2/Common/Source/GCC/startup_hbirdv2.S:124

    /* do pre-init steps before main */
    call _premain_init
800000a8:	29ad                	jal	80000522 <_premain_init>
D:\e203_35T\nuclei_project\hello_world\Debug/../hbird_sdk/SoC/hbirdv2/Common/Source/GCC/startup_hbirdv2.S:127
    /* ===== Call Main Function  ===== */
    /* argc = argv = 0 */
    li a0, 0
800000aa:	4501                	li	a0,0
D:\e203_35T\nuclei_project\hello_world\Debug/../hbird_sdk/SoC/hbirdv2/Common/Source/GCC/startup_hbirdv2.S:128
    li a1, 0
800000ac:	4581                	li	a1,0
D:\e203_35T\nuclei_project\hello_world\Debug/../hbird_sdk/SoC/hbirdv2/Common/Source/GCC/startup_hbirdv2.S:134

#ifdef RTOS_RTTHREAD
    // Call entry function when using RT-Thread
    call entry
#else
    call main
800000ae:	2019                	jal	800000b4 <main>
D:\e203_35T\nuclei_project\hello_world\Debug/../hbird_sdk/SoC/hbirdv2/Common/Source/GCC/startup_hbirdv2.S:137
#endif
    /* do post-main steps after main */
    call _postmain_fini
800000b0:	2ba1                	jal	80000608 <_postmain_fini>
D:\e203_35T\nuclei_project\hello_world\Debug/../hbird_sdk/SoC/hbirdv2/Common/Source/GCC/startup_hbirdv2.S:140

1:
    j 1b
800000b2:	a001                	j	800000b2 <_start+0xb2>

Disassembly of section .text:

800000b4 <main>:
main():
D:\e203_35T\nuclei_project\hello_world\Debug/../application/main.c:84

    printf("MISA: RV%s\r\n", misa_chars);
}

int main(void)
{
800000b4:	7179                	addi	sp,sp,-48
800000b6:	d606                	sw	ra,44(sp)
800000b8:	d422                	sw	s0,40(sp)
800000ba:	d226                	sw	s1,36(sp)
800000bc:	d04a                	sw	s2,32(sp)
__get_rv_cycle():
D:\e203_35T\nuclei_project\hello_world\hbird_sdk\NMSIS\Core\Include/core_feature_base.h:492
{
#if __RISCV_XLEN == 32
    volatile uint32_t high0, low, high;
    uint64_t full;

    high0 = __RV_CSR_READ(CSR_MCYCLEH);
800000be:	b80027f3          	csrr	a5,mcycleh
800000c2:	ca3e                	sw	a5,20(sp)
D:\e203_35T\nuclei_project\hello_world\hbird_sdk\NMSIS\Core\Include/core_feature_base.h:493
    low = __RV_CSR_READ(CSR_MCYCLE);
800000c4:	b00027f3          	csrr	a5,mcycle
800000c8:	cc3e                	sw	a5,24(sp)
D:\e203_35T\nuclei_project\hello_world\hbird_sdk\NMSIS\Core\Include/core_feature_base.h:494
    high = __RV_CSR_READ(CSR_MCYCLEH);
800000ca:	b80027f3          	csrr	a5,mcycleh
800000ce:	ce3e                	sw	a5,28(sp)
D:\e203_35T\nuclei_project\hello_world\hbird_sdk\NMSIS\Core\Include/core_feature_base.h:495
    if (high0 != high) {
800000d0:	4752                	lw	a4,20(sp)
800000d2:	47f2                	lw	a5,28(sp)
800000d4:	00f70563          	beq	a4,a5,800000de <main+0x2a>
D:\e203_35T\nuclei_project\hello_world\hbird_sdk\NMSIS\Core\Include/core_feature_base.h:496
        low = __RV_CSR_READ(CSR_MCYCLE);
800000d8:	b00027f3          	csrr	a5,mcycle
800000dc:	cc3e                	sw	a5,24(sp)
D:\e203_35T\nuclei_project\hello_world\hbird_sdk\NMSIS\Core\Include/core_feature_base.h:498
    }
    full = (((uint64_t)high) << 32) | low;
800000de:	47f2                	lw	a5,28(sp)
800000e0:	47e2                	lw	a5,24(sp)
__get_rv_instret():
D:\e203_35T\nuclei_project\hello_world\hbird_sdk\NMSIS\Core\Include/core_feature_base.h:519
{
#if __RISCV_XLEN == 32
    volatile uint32_t high0, low, high;
    uint64_t full;

    high0 = __RV_CSR_READ(CSR_MINSTRETH);
800000e2:	b8202773          	csrr	a4,minstreth
800000e6:	c43a                	sw	a4,8(sp)
D:\e203_35T\nuclei_project\hello_world\hbird_sdk\NMSIS\Core\Include/core_feature_base.h:520
    low = __RV_CSR_READ(CSR_MINSTRET);
800000e8:	b0202773          	csrr	a4,minstret
800000ec:	c63a                	sw	a4,12(sp)
D:\e203_35T\nuclei_project\hello_world\hbird_sdk\NMSIS\Core\Include/core_feature_base.h:521
    high = __RV_CSR_READ(CSR_MINSTRETH);
800000ee:	b8202773          	csrr	a4,minstreth
800000f2:	c83a                	sw	a4,16(sp)
D:\e203_35T\nuclei_project\hello_world\hbird_sdk\NMSIS\Core\Include/core_feature_base.h:522
    if (high0 != high) {
800000f4:	46a2                	lw	a3,8(sp)
800000f6:	4742                	lw	a4,16(sp)
800000f8:	00e68563          	beq	a3,a4,80000102 <main+0x4e>
D:\e203_35T\nuclei_project\hello_world\hbird_sdk\NMSIS\Core\Include/core_feature_base.h:523
        low = __RV_CSR_READ(CSR_MINSTRET);
800000fc:	b0202773          	csrr	a4,minstret
80000100:	c63a                	sw	a4,12(sp)
D:\e203_35T\nuclei_project\hello_world\hbird_sdk\NMSIS\Core\Include/core_feature_base.h:525
    }
    full = (((uint64_t)high) << 32) | low;
80000102:	4742                	lw	a4,16(sp)
80000104:	4732                	lw	a4,12(sp)
main():
D:\e203_35T\nuclei_project\hello_world\Debug/../application/main.c:85
    srand(__get_rv_cycle()  | __get_rv_instret() | __RV_CSR_READ(CSR_MCYCLE));
80000106:	b0002573          	csrr	a0,mcycle
8000010a:	8fd9                	or	a5,a5,a4
8000010c:	8d5d                	or	a0,a0,a5
8000010e:	453000ef          	jal	ra,80000d60 <srand>
D:\e203_35T\nuclei_project\hello_world\Debug/../application/main.c:86
    uint32_t rval = rand();
80000112:	4c1000ef          	jal	ra,80000dd2 <rand>
D:\e203_35T\nuclei_project\hello_world\Debug/../application/main.c:87
    rv_csr_t misa = __RV_CSR_READ(CSR_MISA);
80000116:	301025f3          	csrr	a1,misa
D:\e203_35T\nuclei_project\hello_world\Debug/../application/main.c:89

    printf("MISA: 0x%lx\r\n", misa);
8000011a:	00002517          	auipc	a0,0x2
8000011e:	0d650513          	addi	a0,a0,214 # 800021f0 <_getpid_r+0xde>
80000122:	323000ef          	jal	ra,80000c44 <iprintf>
D:\e203_35T\nuclei_project\hello_world\Debug/../application/main.c:90
    print_misa();
80000126:	21e5                	jal	8000060e <print_misa>
D:\e203_35T\nuclei_project\hello_world\Debug/../application/main.c:94



    gpio_enable_output(GPIOA, SOC_LED_GPIO_MASK);
80000128:	ff0005b7          	lui	a1,0xff000
8000012c:	10012537          	lui	a0,0x10012
80000130:	22d9                	jal	800002f6 <gpio_enable_output>
D:\e203_35T\nuclei_project\hello_world\Debug/../application/main.c:106
    gpio_toggle(GPIOA, SOC_LED_6_GPIO_MASK);
    gpio_toggle(GPIOA, SOC_LED_7_GPIO_MASK);*/
   // gpio_toggle(GPIOA, SOC_LED_GPIO_MASK);


    gpio_enable_output(GPIOB, SOC_LED_GPIO_MASK|LED0|BEEP);
80000132:	ff0305b7          	lui	a1,0xff030
80000136:	10040537          	lui	a0,0x10040
8000013a:	2a75                	jal	800002f6 <gpio_enable_output>
D:\e203_35T\nuclei_project\hello_world\Debug/../application/main.c:116
    gpio_toggle(GPIOB, SOC_LED_1_GPIO_MASK);
    gpio_toggle(GPIOB, SOC_LED_0_GPIO_MASK);
    gpio_toggle(GPIOB, SOC_LED_6_GPIO_MASK);
    gpio_toggle(GPIOB, SOC_LED_7_GPIO_MASK);*/
   // gpio_toggle(GPIOB, SOC_LED_GPIO_MASK|LED0|BEEP);
    gpio_toggle(GPIOB, LED0);
8000013c:	000205b7          	lui	a1,0x20
80000140:	10040537          	lui	a0,0x10040
80000144:	22d1                	jal	80000308 <gpio_toggle>
D:\e203_35T\nuclei_project\hello_world\Debug/../application/main.c:117
    printf("LED0 Toggled \r\n");
80000146:	00002517          	auipc	a0,0x2
8000014a:	0ba50513          	addi	a0,a0,186 # 80002200 <_getpid_r+0xee>
8000014e:	40b000ef          	jal	ra,80000d58 <puts>
D:\e203_35T\nuclei_project\hello_world\Debug/../application/main.c:119

    for (int i = 0; i < 20; i ++) {
80000152:	4401                	li	s0,0
D:\e203_35T\nuclei_project\hello_world\Debug/../application/main.c:120
        printf("%d: Hello World From RISC-V Processor!\r\n", i);
80000154:	00002917          	auipc	s2,0x2
80000158:	0bc90913          	addi	s2,s2,188 # 80002210 <_getpid_r+0xfe>
D:\e203_35T\nuclei_project\hello_world\Debug/../application/main.c:119
    for (int i = 0; i < 20; i ++) {
8000015c:	44d1                	li	s1,20
D:\e203_35T\nuclei_project\hello_world\Debug/../application/main.c:120 (discriminator 3)
        printf("%d: Hello World From RISC-V Processor!\r\n", i);
8000015e:	85a2                	mv	a1,s0
80000160:	854a                	mv	a0,s2
D:\e203_35T\nuclei_project\hello_world\Debug/../application/main.c:119 (discriminator 3)
    for (int i = 0; i < 20; i ++) {
80000162:	0405                	addi	s0,s0,1
D:\e203_35T\nuclei_project\hello_world\Debug/../application/main.c:120 (discriminator 3)
        printf("%d: Hello World From RISC-V Processor!\r\n", i);
80000164:	2e1000ef          	jal	ra,80000c44 <iprintf>
D:\e203_35T\nuclei_project\hello_world\Debug/../application/main.c:119 (discriminator 3)
    for (int i = 0; i < 20; i ++) {
80000168:	fe941be3          	bne	s0,s1,8000015e <main+0xaa>
D:\e203_35T\nuclei_project\hello_world\Debug/../application/main.c:124
    }

    return 0;
}
8000016c:	50b2                	lw	ra,44(sp)
8000016e:	5422                	lw	s0,40(sp)
80000170:	5492                	lw	s1,36(sp)
80000172:	5902                	lw	s2,32(sp)
80000174:	4501                	li	a0,0
80000176:	6145                	addi	sp,sp,48
80000178:	8082                	ret

8000017a <_close>:
_close():
D:\e203_35T\nuclei_project\hello_world\Debug/../hbird_sdk/SoC/hbirdv2/Common/Source/Stubs/close.c:10
#undef errno
extern int errno;

__WEAK int _close(int fd)
{
    errno = EBADF;
8000017a:	47a5                	li	a5,9
8000017c:	80f1aa23          	sw	a5,-2028(gp) # 90000074 <errno>
D:\e203_35T\nuclei_project\hello_world\Debug/../hbird_sdk/SoC/hbirdv2/Common/Source/Stubs/close.c:12
    return -1;
}
80000180:	557d                	li	a0,-1
80000182:	8082                	ret

80000184 <_exit>:
__WFI():
D:\e203_35T\nuclei_project\hello_world\hbird_sdk\NMSIS\Core\Include/core_feature_base.h:598 (discriminator 1)
 * the hardware platform that suitable interrupts should
 * preferentially be routed to this hart.
 */
__STATIC_FORCEINLINE void __WFI(void)
{
    __ASM volatile("wfi");
80000184:	10500073          	wfi
80000188:	bff5                	j	80000184 <_exit>

8000018a <_fstat>:
_fstat():
D:\e203_35T\nuclei_project\hello_world\Debug/../hbird_sdk/SoC/hbirdv2/Common/Source/Stubs/fstat.c:12
#undef errno
extern int errno;

__WEAK int _fstat(int file, struct stat *st)
{
    if ((STDOUT_FILENO == file) || (STDERR_FILENO == file)) {
8000018a:	157d                	addi	a0,a0,-1
8000018c:	4785                	li	a5,1
8000018e:	00a7e663          	bltu	a5,a0,8000019a <_fstat+0x10>
D:\e203_35T\nuclei_project\hello_world\Debug/../hbird_sdk/SoC/hbirdv2/Common/Source/Stubs/fstat.c:13
        st->st_mode = S_IFCHR;
80000192:	6789                	lui	a5,0x2
80000194:	c1dc                	sw	a5,4(a1)
D:\e203_35T\nuclei_project\hello_world\Debug/../hbird_sdk/SoC/hbirdv2/Common/Source/Stubs/fstat.c:14
        return 0;
80000196:	4501                	li	a0,0
80000198:	8082                	ret
D:\e203_35T\nuclei_project\hello_world\Debug/../hbird_sdk/SoC/hbirdv2/Common/Source/Stubs/fstat.c:16
    } else {
        errno = EBADF;
8000019a:	47a5                	li	a5,9
8000019c:	80f1aa23          	sw	a5,-2028(gp) # 90000074 <errno>
D:\e203_35T\nuclei_project\hello_world\Debug/../hbird_sdk/SoC/hbirdv2/Common/Source/Stubs/fstat.c:17
        return -1;
800001a0:	557d                	li	a0,-1
D:\e203_35T\nuclei_project\hello_world\Debug/../hbird_sdk/SoC/hbirdv2/Common/Source/Stubs/fstat.c:19
    }
}
800001a2:	8082                	ret

800001a4 <_getpid>:
_getpid():
D:\e203_35T\nuclei_project\hello_world\Debug/../hbird_sdk/SoC/hbirdv2/Common/Source/Stubs/getpid.c:8
#include <errno.h>

__WEAK int _getpid(void)
{
    return 1;
}
800001a4:	4505                	li	a0,1
800001a6:	8082                	ret

800001a8 <_isatty>:
_isatty():
D:\e203_35T\nuclei_project\hello_world\Debug/../hbird_sdk/SoC/hbirdv2/Common/Source/Stubs/isatty.c:8
#include <unistd.h>

__WEAK int _isatty(int fd)
{
    return 1;
}
800001a8:	4505                	li	a0,1
800001aa:	8082                	ret

800001ac <_kill>:
_kill():
D:\e203_35T\nuclei_project\hello_world\Debug/../hbird_sdk/SoC/hbirdv2/Common/Source/Stubs/kill.c:9
#undef errno
extern int errno;

__WEAK int _kill(int pid, int sig)
{
    errno = EINVAL;
800001ac:	47d9                	li	a5,22
800001ae:	80f1aa23          	sw	a5,-2028(gp) # 90000074 <errno>
D:\e203_35T\nuclei_project\hello_world\Debug/../hbird_sdk/SoC/hbirdv2/Common/Source/Stubs/kill.c:11
    return -1;
}
800001b2:	557d                	li	a0,-1
800001b4:	8082                	ret

800001b6 <_lseek>:
_lseek():
D:\e203_35T\nuclei_project\hello_world\Debug/../hbird_sdk/SoC/hbirdv2/Common/Source/Stubs/lseek.c:11
extern int errno;

__WEAK int _lseek(int file, int offset, int whence)
{
    return 0;
}
800001b6:	4501                	li	a0,0
800001b8:	8082                	ret

800001ba <_read>:
_read():
D:\e203_35T\nuclei_project\hello_world\Debug/../hbird_sdk/SoC/hbirdv2/Common/Source/Stubs/read.c:12

// #define UART_AUTO_ECHO

__WEAK ssize_t _read(int fd, void* ptr, size_t len)
{
    if (fd != STDIN_FILENO) {
800001ba:	c119                	beqz	a0,800001c0 <_read+0x6>
D:\e203_35T\nuclei_project\hello_world\Debug/../hbird_sdk/SoC/hbirdv2/Common/Source/Stubs/read.c:13
        return -1;
800001bc:	557d                	li	a0,-1
D:\e203_35T\nuclei_project\hello_world\Debug/../hbird_sdk/SoC/hbirdv2/Common/Source/Stubs/read.c:22
    readbuf[0] = uart_read(SOC_DEBUG_UART);
#ifdef UART_AUTO_ECHO
    uart_write(SOC_DEBUG_UART, readbuf[0]);
#endif
    return 1;
}
800001be:	8082                	ret
D:\e203_35T\nuclei_project\hello_world\Debug/../hbird_sdk/SoC/hbirdv2/Common/Source/Stubs/read.c:11
{
800001c0:	1141                	addi	sp,sp,-16
D:\e203_35T\nuclei_project\hello_world\Debug/../hbird_sdk/SoC/hbirdv2/Common/Source/Stubs/read.c:17
    readbuf[0] = uart_read(SOC_DEBUG_UART);
800001c2:	10013537          	lui	a0,0x10013
D:\e203_35T\nuclei_project\hello_world\Debug/../hbird_sdk/SoC/hbirdv2/Common/Source/Stubs/read.c:11
{
800001c6:	c422                	sw	s0,8(sp)
800001c8:	c606                	sw	ra,12(sp)
800001ca:	842e                	mv	s0,a1
D:\e203_35T\nuclei_project\hello_world\Debug/../hbird_sdk/SoC/hbirdv2/Common/Source/Stubs/read.c:17
    readbuf[0] = uart_read(SOC_DEBUG_UART);
800001cc:	2a71                	jal	80000368 <uart_read>
800001ce:	00a40023          	sb	a0,0(s0)
D:\e203_35T\nuclei_project\hello_world\Debug/../hbird_sdk/SoC/hbirdv2/Common/Source/Stubs/read.c:22
}
800001d2:	40b2                	lw	ra,12(sp)
800001d4:	4422                	lw	s0,8(sp)
D:\e203_35T\nuclei_project\hello_world\Debug/../hbird_sdk/SoC/hbirdv2/Common/Source/Stubs/read.c:21
    return 1;
800001d6:	4505                	li	a0,1
D:\e203_35T\nuclei_project\hello_world\Debug/../hbird_sdk/SoC/hbirdv2/Common/Source/Stubs/read.c:22
}
800001d8:	0141                	addi	sp,sp,16
800001da:	8082                	ret

800001dc <_sbrk>:
_sbrk():
D:\e203_35T\nuclei_project\hello_world\Debug/../hbird_sdk/SoC/hbirdv2/Common/Source/Stubs/sbrk.c:13
{
    extern char _end[];
    extern char _heap_end[];
    static char *curbrk = _end;

    if ((curbrk + incr < _end) || (curbrk + incr > _heap_end)) {
800001dc:	10000717          	auipc	a4,0x10000
800001e0:	e8470713          	addi	a4,a4,-380 # 90000060 <curbrk.0>
800001e4:	431c                	lw	a5,0(a4)
800001e6:	96818693          	addi	a3,gp,-1688 # 900001c8 <_end>
800001ea:	953e                	add	a0,a0,a5
800001ec:	00d56b63          	bltu	a0,a3,80000202 <_sbrk+0x26>
D:\e203_35T\nuclei_project\hello_world\Debug/../hbird_sdk/SoC/hbirdv2/Common/Source/Stubs/sbrk.c:13 (discriminator 1)
800001f0:	1000f697          	auipc	a3,0x1000f
800001f4:	61068693          	addi	a3,a3,1552 # 9000f800 <_heap_end>
800001f8:	00a6e563          	bltu	a3,a0,80000202 <_sbrk+0x26>
D:\e203_35T\nuclei_project\hello_world\Debug/../hbird_sdk/SoC/hbirdv2/Common/Source/Stubs/sbrk.c:17
        return (void *)(-1);
    }

    curbrk += incr;
800001fc:	c308                	sw	a0,0(a4)
D:\e203_35T\nuclei_project\hello_world\Debug/../hbird_sdk/SoC/hbirdv2/Common/Source/Stubs/sbrk.c:19
    return (void *)(curbrk - incr);
}
800001fe:	853e                	mv	a0,a5
80000200:	8082                	ret
D:\e203_35T\nuclei_project\hello_world\Debug/../hbird_sdk/SoC/hbirdv2/Common/Source/Stubs/sbrk.c:14
        return (void *)(-1);
80000202:	57fd                	li	a5,-1
D:\e203_35T\nuclei_project\hello_world\Debug/../hbird_sdk/SoC/hbirdv2/Common/Source/Stubs/sbrk.c:19
}
80000204:	853e                	mv	a0,a5
80000206:	8082                	ret

80000208 <_write>:
_write():
D:\e203_35T\nuclei_project\hello_world\Debug/../hbird_sdk/SoC/hbirdv2/Common/Source/Stubs/write.c:9
#include <unistd.h>
#include <sys/types.h>
#include <hbird_sdk_hal.h>

__WEAK ssize_t _write(int fd, const void* ptr, size_t len)
{
80000208:	1101                	addi	sp,sp,-32
8000020a:	cc22                	sw	s0,24(sp)
8000020c:	c64e                	sw	s3,12(sp)
8000020e:	ce06                	sw	ra,28(sp)
80000210:	ca26                	sw	s1,20(sp)
80000212:	c84a                	sw	s2,16(sp)
80000214:	842e                	mv	s0,a1
80000216:	89b2                	mv	s3,a2
D:\e203_35T\nuclei_project\hello_world\Debug/../hbird_sdk/SoC/hbirdv2/Common/Source/Stubs/write.c:10
    if (!isatty(fd)) {
80000218:	45b000ef          	jal	ra,80000e72 <isatty>
8000021c:	c529                	beqz	a0,80000266 <_write+0x5e>
D:\e203_35T\nuclei_project\hello_world\Debug/../hbird_sdk/SoC/hbirdv2/Common/Source/Stubs/write.c:15
        return -1;
    }

    const uint8_t *writebuf = (const uint8_t *)ptr;
    for (size_t i = 0; i < len; i++) {
8000021e:	01340933          	add	s2,s0,s3
D:\e203_35T\nuclei_project\hello_world\Debug/../hbird_sdk/SoC/hbirdv2/Common/Source/Stubs/write.c:16
        if (writebuf[i] == '\n') {
80000222:	44a9                	li	s1,10
D:\e203_35T\nuclei_project\hello_world\Debug/../hbird_sdk/SoC/hbirdv2/Common/Source/Stubs/write.c:15
    for (size_t i = 0; i < len; i++) {
80000224:	00099963          	bnez	s3,80000236 <_write+0x2e>
80000228:	a03d                	j	80000256 <_write+0x4e>
D:\e203_35T\nuclei_project\hello_world\Debug/../hbird_sdk/SoC/hbirdv2/Common/Source/Stubs/write.c:15 (discriminator 2)
8000022a:	0405                	addi	s0,s0,1
D:\e203_35T\nuclei_project\hello_world\Debug/../hbird_sdk/SoC/hbirdv2/Common/Source/Stubs/write.c:19 (discriminator 2)
            uart_write(SOC_DEBUG_UART, '\r');
        }
        uart_write(SOC_DEBUG_UART, writebuf[i]);
8000022c:	10013537          	lui	a0,0x10013
80000230:	2215                	jal	80000354 <uart_write>
D:\e203_35T\nuclei_project\hello_world\Debug/../hbird_sdk/SoC/hbirdv2/Common/Source/Stubs/write.c:15 (discriminator 2)
    for (size_t i = 0; i < len; i++) {
80000232:	03240263          	beq	s0,s2,80000256 <_write+0x4e>
D:\e203_35T\nuclei_project\hello_world\Debug/../hbird_sdk/SoC/hbirdv2/Common/Source/Stubs/write.c:16
        if (writebuf[i] == '\n') {
80000236:	00044583          	lbu	a1,0(s0)
8000023a:	fe9598e3          	bne	a1,s1,8000022a <_write+0x22>
D:\e203_35T\nuclei_project\hello_world\Debug/../hbird_sdk/SoC/hbirdv2/Common/Source/Stubs/write.c:17
            uart_write(SOC_DEBUG_UART, '\r');
8000023e:	45b5                	li	a1,13
80000240:	10013537          	lui	a0,0x10013
80000244:	2a01                	jal	80000354 <uart_write>
D:\e203_35T\nuclei_project\hello_world\Debug/../hbird_sdk/SoC/hbirdv2/Common/Source/Stubs/write.c:19
        uart_write(SOC_DEBUG_UART, writebuf[i]);
80000246:	00044583          	lbu	a1,0(s0)
8000024a:	10013537          	lui	a0,0x10013
D:\e203_35T\nuclei_project\hello_world\Debug/../hbird_sdk/SoC/hbirdv2/Common/Source/Stubs/write.c:15
    for (size_t i = 0; i < len; i++) {
8000024e:	0405                	addi	s0,s0,1
D:\e203_35T\nuclei_project\hello_world\Debug/../hbird_sdk/SoC/hbirdv2/Common/Source/Stubs/write.c:19
        uart_write(SOC_DEBUG_UART, writebuf[i]);
80000250:	2211                	jal	80000354 <uart_write>
D:\e203_35T\nuclei_project\hello_world\Debug/../hbird_sdk/SoC/hbirdv2/Common/Source/Stubs/write.c:15
    for (size_t i = 0; i < len; i++) {
80000252:	ff2412e3          	bne	s0,s2,80000236 <_write+0x2e>
D:\e203_35T\nuclei_project\hello_world\Debug/../hbird_sdk/SoC/hbirdv2/Common/Source/Stubs/write.c:21
    }
    return len;
80000256:	854e                	mv	a0,s3
D:\e203_35T\nuclei_project\hello_world\Debug/../hbird_sdk/SoC/hbirdv2/Common/Source/Stubs/write.c:22
}
80000258:	40f2                	lw	ra,28(sp)
8000025a:	4462                	lw	s0,24(sp)
8000025c:	44d2                	lw	s1,20(sp)
8000025e:	4942                	lw	s2,16(sp)
80000260:	49b2                	lw	s3,12(sp)
80000262:	6105                	addi	sp,sp,32
80000264:	8082                	ret
D:\e203_35T\nuclei_project\hello_world\Debug/../hbird_sdk/SoC/hbirdv2/Common/Source/Stubs/write.c:11
        return -1;
80000266:	557d                	li	a0,-1
80000268:	bfc5                	j	80000258 <_write+0x50>
	...

8000026c <trap_entry>:
trap_entry():
D:\e203_35T\nuclei_project\hello_world\Debug/../hbird_sdk/SoC/hbirdv2/Common/Source/GCC/intexc_hbirdv2.S:159
.align 2
.global trap_entry
.weak trap_entry
trap_entry:
    /* Save the caller saving registers (context) */
    SAVE_CONTEXT
8000026c:	715d                	addi	sp,sp,-80
8000026e:	c006                	sw	ra,0(sp)
80000270:	c212                	sw	tp,4(sp)
80000272:	c416                	sw	t0,8(sp)
80000274:	c61a                	sw	t1,12(sp)
80000276:	c81e                	sw	t2,16(sp)
80000278:	ca2a                	sw	a0,20(sp)
8000027a:	cc2e                	sw	a1,24(sp)
8000027c:	ce32                	sw	a2,28(sp)
8000027e:	d036                	sw	a3,32(sp)
80000280:	d23a                	sw	a4,36(sp)
80000282:	d43e                	sw	a5,40(sp)
80000284:	dc42                	sw	a6,56(sp)
80000286:	de46                	sw	a7,60(sp)
80000288:	c0f2                	sw	t3,64(sp)
8000028a:	c2f6                	sw	t4,68(sp)
8000028c:	c4fa                	sw	t5,72(sp)
8000028e:	c6fe                	sw	t6,76(sp)
D:\e203_35T\nuclei_project\hello_world\Debug/../hbird_sdk/SoC/hbirdv2/Common/Source/GCC/intexc_hbirdv2.S:161
    /* Save the necessary CSR registers */
    SAVE_CSR_CONTEXT
80000290:	341022f3          	csrr	t0,mepc
80000294:	d616                	sw	t0,44(sp)
80000296:	342022f3          	csrr	t0,mcause
8000029a:	d816                	sw	t0,48(sp)
8000029c:	300022f3          	csrr	t0,mstatus
800002a0:	da16                	sw	t0,52(sp)
D:\e203_35T\nuclei_project\hello_world\Debug/../hbird_sdk/SoC/hbirdv2/Common/Source/GCC/intexc_hbirdv2.S:168
    /*
     * Set the exception handler function arguments
     * argument 1: mcause value
     * argument 2: current stack point(SP) value
     */
    csrr a0, mcause
800002a2:	34202573          	csrr	a0,mcause
D:\e203_35T\nuclei_project\hello_world\Debug/../hbird_sdk/SoC/hbirdv2/Common/Source/GCC/intexc_hbirdv2.S:169
    mv a1, sp
800002a6:	858a                	mv	a1,sp
D:\e203_35T\nuclei_project\hello_world\Debug/../hbird_sdk/SoC/hbirdv2/Common/Source/GCC/intexc_hbirdv2.S:175
    /*
     * TODO: Call the trap handler function
     * By default, the function template is provided in
     * system_Device.c, you can adjust it as you want
     */
    call core_trap_handler
800002a8:	22ed                	jal	80000492 <core_trap_handler>
D:\e203_35T\nuclei_project\hello_world\Debug/../hbird_sdk/SoC/hbirdv2/Common/Source/GCC/intexc_hbirdv2.S:178

    /* Restore the necessary CSR registers */
    RESTORE_CSR_CONTEXT
800002aa:	52b2                	lw	t0,44(sp)
800002ac:	34129073          	csrw	mepc,t0
800002b0:	52c2                	lw	t0,48(sp)
800002b2:	34229073          	csrw	mcause,t0
800002b6:	52d2                	lw	t0,52(sp)
800002b8:	30029073          	csrw	mstatus,t0
D:\e203_35T\nuclei_project\hello_world\Debug/../hbird_sdk/SoC/hbirdv2/Common/Source/GCC/intexc_hbirdv2.S:180
    /* Restore the caller saving registers (context) */
    RESTORE_CONTEXT
800002bc:	4082                	lw	ra,0(sp)
800002be:	4212                	lw	tp,4(sp)
800002c0:	42a2                	lw	t0,8(sp)
800002c2:	4332                	lw	t1,12(sp)
800002c4:	43c2                	lw	t2,16(sp)
800002c6:	4552                	lw	a0,20(sp)
800002c8:	45e2                	lw	a1,24(sp)
800002ca:	4672                	lw	a2,28(sp)
800002cc:	5682                	lw	a3,32(sp)
800002ce:	5712                	lw	a4,36(sp)
800002d0:	57a2                	lw	a5,40(sp)
800002d2:	5862                	lw	a6,56(sp)
800002d4:	58f2                	lw	a7,60(sp)
800002d6:	4e06                	lw	t3,64(sp)
800002d8:	4e96                	lw	t4,68(sp)
800002da:	4f26                	lw	t5,72(sp)
800002dc:	4fb6                	lw	t6,76(sp)
800002de:	6161                	addi	sp,sp,80
D:\e203_35T\nuclei_project\hello_world\Debug/../hbird_sdk/SoC/hbirdv2/Common/Source/GCC/intexc_hbirdv2.S:183

    /* Return to regular code */
    mret
800002e0:	30200073          	mret

800002e4 <gpio_iof_config>:
gpio_iof_config():
D:\e203_35T\nuclei_project\hello_world\Debug/../hbird_sdk/SoC/hbirdv2/Common/Source/Drivers/hbirdv2_gpio.c:5
#include "hbirdv2.h"
#include "hbirdv2_gpio.h"

int32_t gpio_iof_config(GPIO_TypeDef *gpio, uint32_t mask)
{
800002e4:	87aa                	mv	a5,a0
D:\e203_35T\nuclei_project\hello_world\Debug/../hbird_sdk/SoC/hbirdv2/Common/Source/Drivers/hbirdv2_gpio.c:6
    if (__RARELY(gpio == NULL)) {
800002e6:	c511                	beqz	a0,800002f2 <gpio_iof_config+0xe>
D:\e203_35T\nuclei_project\hello_world\Debug/../hbird_sdk/SoC/hbirdv2/Common/Source/Drivers/hbirdv2_gpio.c:9
        return -1;
    }
    gpio->IOFCFG |= mask;
800002e8:	4d58                	lw	a4,28(a0)
D:\e203_35T\nuclei_project\hello_world\Debug/../hbird_sdk/SoC/hbirdv2/Common/Source/Drivers/hbirdv2_gpio.c:11

    return 0;
800002ea:	4501                	li	a0,0
D:\e203_35T\nuclei_project\hello_world\Debug/../hbird_sdk/SoC/hbirdv2/Common/Source/Drivers/hbirdv2_gpio.c:9
    gpio->IOFCFG |= mask;
800002ec:	8dd9                	or	a1,a1,a4
800002ee:	cfcc                	sw	a1,28(a5)
D:\e203_35T\nuclei_project\hello_world\Debug/../hbird_sdk/SoC/hbirdv2/Common/Source/Drivers/hbirdv2_gpio.c:11
    return 0;
800002f0:	8082                	ret
D:\e203_35T\nuclei_project\hello_world\Debug/../hbird_sdk/SoC/hbirdv2/Common/Source/Drivers/hbirdv2_gpio.c:7
        return -1;
800002f2:	557d                	li	a0,-1
D:\e203_35T\nuclei_project\hello_world\Debug/../hbird_sdk/SoC/hbirdv2/Common/Source/Drivers/hbirdv2_gpio.c:12
}
800002f4:	8082                	ret

800002f6 <gpio_enable_output>:
gpio_enable_output():
D:\e203_35T\nuclei_project\hello_world\Debug/../hbird_sdk/SoC/hbirdv2/Common/Source/Drivers/hbirdv2_gpio.c:16


int32_t gpio_enable_output(GPIO_TypeDef *gpio, uint32_t mask)
{
800002f6:	87aa                	mv	a5,a0
D:\e203_35T\nuclei_project\hello_world\Debug/../hbird_sdk/SoC/hbirdv2/Common/Source/Drivers/hbirdv2_gpio.c:17
    if (__RARELY(gpio == NULL)) {
800002f8:	c511                	beqz	a0,80000304 <gpio_enable_output+0xe>
D:\e203_35T\nuclei_project\hello_world\Debug/../hbird_sdk/SoC/hbirdv2/Common/Source/Drivers/hbirdv2_gpio.c:20
        return -1;
    }
    gpio->PADDIR |= mask;
800002fa:	4118                	lw	a4,0(a0)
D:\e203_35T\nuclei_project\hello_world\Debug/../hbird_sdk/SoC/hbirdv2/Common/Source/Drivers/hbirdv2_gpio.c:21
    return 0;
800002fc:	4501                	li	a0,0
D:\e203_35T\nuclei_project\hello_world\Debug/../hbird_sdk/SoC/hbirdv2/Common/Source/Drivers/hbirdv2_gpio.c:20
    gpio->PADDIR |= mask;
800002fe:	8dd9                	or	a1,a1,a4
80000300:	c38c                	sw	a1,0(a5)
D:\e203_35T\nuclei_project\hello_world\Debug/../hbird_sdk/SoC/hbirdv2/Common/Source/Drivers/hbirdv2_gpio.c:21
    return 0;
80000302:	8082                	ret
D:\e203_35T\nuclei_project\hello_world\Debug/../hbird_sdk/SoC/hbirdv2/Common/Source/Drivers/hbirdv2_gpio.c:18
        return -1;
80000304:	557d                	li	a0,-1
D:\e203_35T\nuclei_project\hello_world\Debug/../hbird_sdk/SoC/hbirdv2/Common/Source/Drivers/hbirdv2_gpio.c:22
}
80000306:	8082                	ret

80000308 <gpio_toggle>:
gpio_toggle():
D:\e203_35T\nuclei_project\hello_world\Debug/../hbird_sdk/SoC/hbirdv2/Common/Source/Drivers/hbirdv2_gpio.c:48
    }
    return 0;
}

int32_t gpio_toggle(GPIO_TypeDef *gpio, uint32_t mask)
{
80000308:	87aa                	mv	a5,a0
D:\e203_35T\nuclei_project\hello_world\Debug/../hbird_sdk/SoC/hbirdv2/Common/Source/Drivers/hbirdv2_gpio.c:49
    if (__RARELY(gpio == NULL)) {
8000030a:	c511                	beqz	a0,80000316 <gpio_toggle+0xe>
D:\e203_35T\nuclei_project\hello_world\Debug/../hbird_sdk/SoC/hbirdv2/Common/Source/Drivers/hbirdv2_gpio.c:52
        return -1;
    }
    gpio->PADOUT = (mask ^ gpio->PADOUT);
8000030c:	4518                	lw	a4,8(a0)
D:\e203_35T\nuclei_project\hello_world\Debug/../hbird_sdk/SoC/hbirdv2/Common/Source/Drivers/hbirdv2_gpio.c:53
    return 0;
8000030e:	4501                	li	a0,0
D:\e203_35T\nuclei_project\hello_world\Debug/../hbird_sdk/SoC/hbirdv2/Common/Source/Drivers/hbirdv2_gpio.c:52
    gpio->PADOUT = (mask ^ gpio->PADOUT);
80000310:	8db9                	xor	a1,a1,a4
80000312:	c78c                	sw	a1,8(a5)
D:\e203_35T\nuclei_project\hello_world\Debug/../hbird_sdk/SoC/hbirdv2/Common/Source/Drivers/hbirdv2_gpio.c:53
    return 0;
80000314:	8082                	ret
D:\e203_35T\nuclei_project\hello_world\Debug/../hbird_sdk/SoC/hbirdv2/Common/Source/Drivers/hbirdv2_gpio.c:50
        return -1;
80000316:	557d                	li	a0,-1
D:\e203_35T\nuclei_project\hello_world\Debug/../hbird_sdk/SoC/hbirdv2/Common/Source/Drivers/hbirdv2_gpio.c:54
}
80000318:	8082                	ret

8000031a <uart_init>:
uart_init():
D:\e203_35T\nuclei_project\hello_world\Debug/../hbird_sdk/SoC/hbirdv2/Common/Source/Drivers/hbirdv2_uart.c:5
#include "hbirdv2.h"
#include "hbirdv2_uart.h"

int32_t uart_init(UART_TypeDef *uart, uint32_t baudrate)
{
8000031a:	87aa                	mv	a5,a0
D:\e203_35T\nuclei_project\hello_world\Debug/../hbird_sdk/SoC/hbirdv2/Common/Source/Drivers/hbirdv2_uart.c:6
    if (__RARELY(uart == NULL)) {
8000031c:	c915                	beqz	a0,80000350 <uart_init+0x36>
D:\e203_35T\nuclei_project\hello_world\Debug/../hbird_sdk/SoC/hbirdv2/Common/Source/Drivers/hbirdv2_uart.c:10
        return -1;
    }

    unsigned int uart_div = SystemCoreClock / baudrate - 1;
8000031e:	10000717          	auipc	a4,0x10000
80000322:	d4672703          	lw	a4,-698(a4) # 90000064 <SystemCoreClock>
80000326:	02b755b3          	divu	a1,a4,a1
D:\e203_35T\nuclei_project\hello_world\Debug/../hbird_sdk/SoC/hbirdv2/Common/Source/Drivers/hbirdv2_uart.c:11
    uart->LCR = 0x80;
8000032a:	08000713          	li	a4,128
8000032e:	c558                	sw	a4,12(a0)
D:\e203_35T\nuclei_project\hello_world\Debug/../hbird_sdk/SoC/hbirdv2/Common/Source/Drivers/hbirdv2_uart.c:17
    uart->DLM = (uart_div >> 8) & 0xFF;
    uart->DLL = uart_div        & 0xFF;
    uart->FCR = 0xC6;
    uart->LCR = 0x03;

    return 0;
80000330:	4501                	li	a0,0
D:\e203_35T\nuclei_project\hello_world\Debug/../hbird_sdk/SoC/hbirdv2/Common/Source/Drivers/hbirdv2_uart.c:10
    unsigned int uart_div = SystemCoreClock / baudrate - 1;
80000332:	15fd                	addi	a1,a1,-1
D:\e203_35T\nuclei_project\hello_world\Debug/../hbird_sdk/SoC/hbirdv2/Common/Source/Drivers/hbirdv2_uart.c:12
    uart->DLM = (uart_div >> 8) & 0xFF;
80000334:	0085d713          	srli	a4,a1,0x8
80000338:	0ff77713          	zext.b	a4,a4
8000033c:	c3d8                	sw	a4,4(a5)
D:\e203_35T\nuclei_project\hello_world\Debug/../hbird_sdk/SoC/hbirdv2/Common/Source/Drivers/hbirdv2_uart.c:13
    uart->DLL = uart_div        & 0xFF;
8000033e:	0ff5f593          	zext.b	a1,a1
80000342:	c38c                	sw	a1,0(a5)
D:\e203_35T\nuclei_project\hello_world\Debug/../hbird_sdk/SoC/hbirdv2/Common/Source/Drivers/hbirdv2_uart.c:14
    uart->FCR = 0xC6;
80000344:	0c600713          	li	a4,198
80000348:	c798                	sw	a4,8(a5)
D:\e203_35T\nuclei_project\hello_world\Debug/../hbird_sdk/SoC/hbirdv2/Common/Source/Drivers/hbirdv2_uart.c:15
    uart->LCR = 0x03;
8000034a:	470d                	li	a4,3
8000034c:	c7d8                	sw	a4,12(a5)
D:\e203_35T\nuclei_project\hello_world\Debug/../hbird_sdk/SoC/hbirdv2/Common/Source/Drivers/hbirdv2_uart.c:17
    return 0;
8000034e:	8082                	ret
D:\e203_35T\nuclei_project\hello_world\Debug/../hbird_sdk/SoC/hbirdv2/Common/Source/Drivers/hbirdv2_uart.c:7
        return -1;
80000350:	557d                	li	a0,-1
D:\e203_35T\nuclei_project\hello_world\Debug/../hbird_sdk/SoC/hbirdv2/Common/Source/Drivers/hbirdv2_uart.c:18
}
80000352:	8082                	ret

80000354 <uart_write>:
uart_write():
D:\e203_35T\nuclei_project\hello_world\Debug/../hbird_sdk/SoC/hbirdv2/Common/Source/Drivers/hbirdv2_uart.c:68
    return 0;
}

int32_t uart_write(UART_TypeDef *uart, uint8_t val)
{
    if (__RARELY(uart == NULL)) {
80000354:	c901                	beqz	a0,80000364 <uart_write+0x10>
D:\e203_35T\nuclei_project\hello_world\Debug/../hbird_sdk/SoC/hbirdv2/Common/Source/Drivers/hbirdv2_uart.c:73 (discriminator 1)
        return -1;
    }
#ifndef SIMULATION_SPIKE
#ifndef SIMULATION_XLSPIKE
    while ((uart->LSR & 0x20) == 0);
80000356:	495c                	lw	a5,20(a0)
80000358:	0207f793          	andi	a5,a5,32
8000035c:	dfed                	beqz	a5,80000356 <uart_write+0x2>
D:\e203_35T\nuclei_project\hello_world\Debug/../hbird_sdk/SoC/hbirdv2/Common/Source/Drivers/hbirdv2_uart.c:75
#endif
    uart->THR = val;
8000035e:	c10c                	sw	a1,0(a0)
D:\e203_35T\nuclei_project\hello_world\Debug/../hbird_sdk/SoC/hbirdv2/Common/Source/Drivers/hbirdv2_uart.c:80
#else
    extern void htif_putc(char ch);
    htif_putc(val);
#endif
    return 0;
80000360:	4501                	li	a0,0
80000362:	8082                	ret
D:\e203_35T\nuclei_project\hello_world\Debug/../hbird_sdk/SoC/hbirdv2/Common/Source/Drivers/hbirdv2_uart.c:69
        return -1;
80000364:	557d                	li	a0,-1
D:\e203_35T\nuclei_project\hello_world\Debug/../hbird_sdk/SoC/hbirdv2/Common/Source/Drivers/hbirdv2_uart.c:81
}
80000366:	8082                	ret

80000368 <uart_read>:
uart_read():
D:\e203_35T\nuclei_project\hello_world\Debug/../hbird_sdk/SoC/hbirdv2/Common/Source/Drivers/hbirdv2_uart.c:86

uint8_t uart_read(UART_TypeDef *uart)
{
    uint32_t reg;
    if (__RARELY(uart == NULL)) {
80000368:	c901                	beqz	a0,80000378 <uart_read+0x10>
D:\e203_35T\nuclei_project\hello_world\Debug/../hbird_sdk/SoC/hbirdv2/Common/Source/Drivers/hbirdv2_uart.c:90 (discriminator 1)
        return -1;
    }
    
    while ((uart->LSR & 0x1) == 0);
8000036a:	495c                	lw	a5,20(a0)
8000036c:	8b85                	andi	a5,a5,1
8000036e:	dff5                	beqz	a5,8000036a <uart_read+0x2>
D:\e203_35T\nuclei_project\hello_world\Debug/../hbird_sdk/SoC/hbirdv2/Common/Source/Drivers/hbirdv2_uart.c:91
    reg = uart->RBR;
80000370:	4108                	lw	a0,0(a0)
D:\e203_35T\nuclei_project\hello_world\Debug/../hbird_sdk/SoC/hbirdv2/Common/Source/Drivers/hbirdv2_uart.c:93
    
    return (uint8_t)(reg & 0xFF);
80000372:	0ff57513          	zext.b	a0,a0
80000376:	8082                	ret
D:\e203_35T\nuclei_project\hello_world\Debug/../hbird_sdk/SoC/hbirdv2/Common/Source/Drivers/hbirdv2_uart.c:87
        return -1;
80000378:	0ff00513          	li	a0,255
D:\e203_35T\nuclei_project\hello_world\Debug/../hbird_sdk/SoC/hbirdv2/Common/Source/Drivers/hbirdv2_uart.c:94
}
8000037c:	8082                	ret

8000037e <measure_cpu_freq>:
SysTimer_GetLoadValue():
D:\e203_35T\nuclei_project\hello_world\hbird_sdk\NMSIS\Core\Include/core_feature_timer.h:106
 * - Load value is 64bits wide.
 * - \ref SysTimer_SetLoadValue
 */
__STATIC_FORCEINLINE uint64_t SysTimer_GetLoadValue(void)
{
    return SysTimer->MTIME;
8000037e:	0200c7b7          	lui	a5,0x200c
80000382:	ff87a703          	lw	a4,-8(a5) # 200bff8 <__stack_size+0x200b7f8>
80000386:	ffc7a783          	lw	a5,-4(a5)
measure_cpu_freq():
D:\e203_35T\nuclei_project\hello_world\Debug/../hbird_sdk/SoC/hbirdv2/Common/Source/hbirdv2_common.c:9
{
    return SOC_TIMER_FREQ;
}

uint32_t measure_cpu_freq(uint32_t n)
{
8000038a:	1141                	addi	sp,sp,-16
8000038c:	c606                	sw	ra,12(sp)
8000038e:	c422                	sw	s0,8(sp)
80000390:	c226                	sw	s1,4(sp)
D:\e203_35T\nuclei_project\hello_world\Debug/../hbird_sdk/SoC/hbirdv2/Common/Source/hbirdv2_common.c:15
    uint32_t start_mcycle, delta_mcycle;
    uint32_t start_mtime, delta_mtime;
    uint64_t mtime_freq = get_timer_freq();

    // Don't start measuruing until we see an mtime tick
    uint32_t tmp = (uint32_t)SysTimer_GetLoadValue();
80000392:	86ba                	mv	a3,a4
SysTimer_GetLoadValue():
D:\e203_35T\nuclei_project\hello_world\hbird_sdk\NMSIS\Core\Include/core_feature_timer.h:106
80000394:	0200c637          	lui	a2,0x200c
D:\e203_35T\nuclei_project\hello_world\hbird_sdk\NMSIS\Core\Include/core_feature_timer.h:106 (discriminator 1)
80000398:	ff862703          	lw	a4,-8(a2) # 200bff8 <__stack_size+0x200b7f8>
8000039c:	ffc62783          	lw	a5,-4(a2)
measure_cpu_freq():
D:\e203_35T\nuclei_project\hello_world\Debug/../hbird_sdk/SoC/hbirdv2/Common/Source/hbirdv2_common.c:18 (discriminator 1)
    do {
        start_mtime = (uint32_t)SysTimer_GetLoadValue();
        start_mcycle = __RV_CSR_READ(CSR_MCYCLE);
800003a0:	b00024f3          	csrr	s1,mcycle
D:\e203_35T\nuclei_project\hello_world\Debug/../hbird_sdk/SoC/hbirdv2/Common/Source/hbirdv2_common.c:19 (discriminator 1)
    } while (start_mtime == tmp);
800003a4:	fee68ae3          	beq	a3,a4,80000398 <measure_cpu_freq+0x1a>
SysTimer_GetLoadValue():
D:\e203_35T\nuclei_project\hello_world\hbird_sdk\NMSIS\Core\Include/core_feature_timer.h:106
800003a8:	0200c5b7          	lui	a1,0x200c
D:\e203_35T\nuclei_project\hello_world\hbird_sdk\NMSIS\Core\Include/core_feature_timer.h:106 (discriminator 1)
800003ac:	ff85a603          	lw	a2,-8(a1) # 200bff8 <__stack_size+0x200b7f8>
800003b0:	ffc5a683          	lw	a3,-4(a1)
measure_cpu_freq():
D:\e203_35T\nuclei_project\hello_world\Debug/../hbird_sdk/SoC/hbirdv2/Common/Source/hbirdv2_common.c:22 (discriminator 1)

    do {
        delta_mtime = (uint32_t)SysTimer_GetLoadValue() - start_mtime;
800003b4:	40e60433          	sub	s0,a2,a4
D:\e203_35T\nuclei_project\hello_world\Debug/../hbird_sdk/SoC/hbirdv2/Common/Source/hbirdv2_common.c:23 (discriminator 1)
        delta_mcycle = __RV_CSR_READ(CSR_MCYCLE) - start_mcycle;
800003b8:	b00027f3          	csrr	a5,mcycle
D:\e203_35T\nuclei_project\hello_world\Debug/../hbird_sdk/SoC/hbirdv2/Common/Source/hbirdv2_common.c:24 (discriminator 1)
    } while (delta_mtime < n);
800003bc:	fea468e3          	bltu	s0,a0,800003ac <measure_cpu_freq+0x2e>
D:\e203_35T\nuclei_project\hello_world\Debug/../hbird_sdk/SoC/hbirdv2/Common/Source/hbirdv2_common.c:23
        delta_mcycle = __RV_CSR_READ(CSR_MCYCLE) - start_mcycle;
800003c0:	409784b3          	sub	s1,a5,s1
D:\e203_35T\nuclei_project\hello_world\Debug/../hbird_sdk/SoC/hbirdv2/Common/Source/hbirdv2_common.c:27

    return (delta_mcycle / delta_mtime) * mtime_freq
           + ((delta_mcycle % delta_mtime) * mtime_freq) / delta_mtime;
800003c4:	0284f5b3          	remu	a1,s1,s0
800003c8:	8622                	mv	a2,s0
800003ca:	4681                	li	a3,0
800003cc:	00f59513          	slli	a0,a1,0xf
800003d0:	81c5                	srli	a1,a1,0x11
800003d2:	2995                	jal	80000846 <__udivdi3>
D:\e203_35T\nuclei_project\hello_world\Debug/../hbird_sdk/SoC/hbirdv2/Common/Source/hbirdv2_common.c:26
    return (delta_mcycle / delta_mtime) * mtime_freq
800003d4:	0284d633          	divu	a2,s1,s0
D:\e203_35T\nuclei_project\hello_world\Debug/../hbird_sdk/SoC/hbirdv2/Common/Source/hbirdv2_common.c:28
}
800003d8:	40b2                	lw	ra,12(sp)
800003da:	4422                	lw	s0,8(sp)
800003dc:	4492                	lw	s1,4(sp)
800003de:	0141                	addi	sp,sp,16
D:\e203_35T\nuclei_project\hello_world\Debug/../hbird_sdk/SoC/hbirdv2/Common/Source/hbirdv2_common.c:27
           + ((delta_mcycle % delta_mtime) * mtime_freq) / delta_mtime;
800003e0:	063e                	slli	a2,a2,0xf
D:\e203_35T\nuclei_project\hello_world\Debug/../hbird_sdk/SoC/hbirdv2/Common/Source/hbirdv2_common.c:28
}
800003e2:	9532                	add	a0,a0,a2
800003e4:	8082                	ret

800003e6 <get_cpu_freq>:
get_cpu_freq():
D:\e203_35T\nuclei_project\hello_world\Debug/../hbird_sdk/SoC/hbirdv2/Common/Source/hbirdv2_common.c:31

uint32_t get_cpu_freq(void)
{
800003e6:	1141                	addi	sp,sp,-16
D:\e203_35T\nuclei_project\hello_world\Debug/../hbird_sdk/SoC/hbirdv2/Common/Source/hbirdv2_common.c:35
    uint32_t cpu_freq;

    // warm up
    measure_cpu_freq(1);
800003e8:	4505                	li	a0,1
D:\e203_35T\nuclei_project\hello_world\Debug/../hbird_sdk/SoC/hbirdv2/Common/Source/hbirdv2_common.c:31
{
800003ea:	c606                	sw	ra,12(sp)
D:\e203_35T\nuclei_project\hello_world\Debug/../hbird_sdk/SoC/hbirdv2/Common/Source/hbirdv2_common.c:35
    measure_cpu_freq(1);
800003ec:	3f49                	jal	8000037e <measure_cpu_freq>
D:\e203_35T\nuclei_project\hello_world\Debug/../hbird_sdk/SoC/hbirdv2/Common/Source/hbirdv2_common.c:40
    // measure for real
    cpu_freq = measure_cpu_freq(100);

    return cpu_freq;
}
800003ee:	40b2                	lw	ra,12(sp)
D:\e203_35T\nuclei_project\hello_world\Debug/../hbird_sdk/SoC/hbirdv2/Common/Source/hbirdv2_common.c:37
    cpu_freq = measure_cpu_freq(100);
800003f0:	06400513          	li	a0,100
D:\e203_35T\nuclei_project\hello_world\Debug/../hbird_sdk/SoC/hbirdv2/Common/Source/hbirdv2_common.c:40
}
800003f4:	0141                	addi	sp,sp,16
D:\e203_35T\nuclei_project\hello_world\Debug/../hbird_sdk/SoC/hbirdv2/Common/Source/hbirdv2_common.c:37
    cpu_freq = measure_cpu_freq(100);
800003f6:	b761                	j	8000037e <measure_cpu_freq>

800003f8 <system_default_exception_handler>:
system_default_exception_handler():
D:\e203_35T\nuclei_project\hello_world\Debug/../hbird_sdk/SoC/hbirdv2/Common/Source/system_hbirdv2.c:168
 * \details
 * This function provided a default exception handling code for all exception ids.
 * By default, It will just print some information for debug, Vendor can customize it according to its requirements.
 */
static void system_default_exception_handler(unsigned long mcause, unsigned long sp)
{
800003f8:	1141                	addi	sp,sp,-16
800003fa:	c422                	sw	s0,8(sp)
800003fc:	842a                	mv	s0,a0
D:\e203_35T\nuclei_project\hello_world\Debug/../hbird_sdk/SoC/hbirdv2/Common/Source/system_hbirdv2.c:170
    /* TODO: Uncomment this if you have implement printf function */
    printf("Trap in Exception\r\n");
800003fe:	00002517          	auipc	a0,0x2
80000402:	d1a50513          	addi	a0,a0,-742 # 80002118 <_getpid_r+0x6>
D:\e203_35T\nuclei_project\hello_world\Debug/../hbird_sdk/SoC/hbirdv2/Common/Source/system_hbirdv2.c:168
{
80000406:	c606                	sw	ra,12(sp)
D:\e203_35T\nuclei_project\hello_world\Debug/../hbird_sdk/SoC/hbirdv2/Common/Source/system_hbirdv2.c:170
    printf("Trap in Exception\r\n");
80000408:	151000ef          	jal	ra,80000d58 <puts>
D:\e203_35T\nuclei_project\hello_world\Debug/../hbird_sdk/SoC/hbirdv2/Common/Source/system_hbirdv2.c:171
    printf("MCAUSE: 0x%lx\r\n", mcause);
8000040c:	85a2                	mv	a1,s0
8000040e:	00002517          	auipc	a0,0x2
80000412:	d1e50513          	addi	a0,a0,-738 # 8000212c <_getpid_r+0x1a>
80000416:	02f000ef          	jal	ra,80000c44 <iprintf>
D:\e203_35T\nuclei_project\hello_world\Debug/../hbird_sdk/SoC/hbirdv2/Common/Source/system_hbirdv2.c:172
    printf("MEPC  : 0x%lx\r\n", __RV_CSR_READ(CSR_MEPC));
8000041a:	341025f3          	csrr	a1,mepc
8000041e:	00002517          	auipc	a0,0x2
80000422:	d1e50513          	addi	a0,a0,-738 # 8000213c <_getpid_r+0x2a>
80000426:	01f000ef          	jal	ra,80000c44 <iprintf>
D:\e203_35T\nuclei_project\hello_world\Debug/../hbird_sdk/SoC/hbirdv2/Common/Source/system_hbirdv2.c:173
    printf("MTVAL : 0x%lx\r\n", __RV_CSR_READ(CSR_MBADADDR));
8000042a:	343025f3          	csrr	a1,mtval
8000042e:	00002517          	auipc	a0,0x2
80000432:	d1e50513          	addi	a0,a0,-738 # 8000214c <_getpid_r+0x3a>
80000436:	00f000ef          	jal	ra,80000c44 <iprintf>
D:\e203_35T\nuclei_project\hello_world\Debug/../hbird_sdk/SoC/hbirdv2/Common/Source/system_hbirdv2.c:174 (discriminator 1)
    while(1);
8000043a:	a001                	j	8000043a <system_default_exception_handler+0x42>

8000043c <system_default_interrupt_handler>:
system_default_interrupt_handler():
D:\e203_35T\nuclei_project\hello_world\Debug/../hbird_sdk/SoC/hbirdv2/Common/Source/system_hbirdv2.c:183
 * \brief      System Default Interrupt Handler
 * \details
 * This function provided a default interrupt handling code for all interrupt ids.
 */
static void system_default_interrupt_handler(unsigned long mcause, unsigned long sp)
{
8000043c:	1141                	addi	sp,sp,-16
8000043e:	c422                	sw	s0,8(sp)
80000440:	842a                	mv	s0,a0
D:\e203_35T\nuclei_project\hello_world\Debug/../hbird_sdk/SoC/hbirdv2/Common/Source/system_hbirdv2.c:185
    /* TODO: Uncomment this if you have implement printf function */
    printf("Trap in Interrupt\r\n");
80000442:	00002517          	auipc	a0,0x2
80000446:	d1a50513          	addi	a0,a0,-742 # 8000215c <_getpid_r+0x4a>
D:\e203_35T\nuclei_project\hello_world\Debug/../hbird_sdk/SoC/hbirdv2/Common/Source/system_hbirdv2.c:183
{
8000044a:	c606                	sw	ra,12(sp)
D:\e203_35T\nuclei_project\hello_world\Debug/../hbird_sdk/SoC/hbirdv2/Common/Source/system_hbirdv2.c:185
    printf("Trap in Interrupt\r\n");
8000044c:	10d000ef          	jal	ra,80000d58 <puts>
D:\e203_35T\nuclei_project\hello_world\Debug/../hbird_sdk/SoC/hbirdv2/Common/Source/system_hbirdv2.c:186
    printf("MCAUSE: 0x%lx\r\n", mcause);
80000450:	85a2                	mv	a1,s0
80000452:	00002517          	auipc	a0,0x2
80000456:	cda50513          	addi	a0,a0,-806 # 8000212c <_getpid_r+0x1a>
8000045a:	7ea000ef          	jal	ra,80000c44 <iprintf>
D:\e203_35T\nuclei_project\hello_world\Debug/../hbird_sdk/SoC/hbirdv2/Common/Source/system_hbirdv2.c:187
    printf("MEPC  : 0x%lx\r\n", __RV_CSR_READ(CSR_MEPC));
8000045e:	341025f3          	csrr	a1,mepc
80000462:	00002517          	auipc	a0,0x2
80000466:	cda50513          	addi	a0,a0,-806 # 8000213c <_getpid_r+0x2a>
8000046a:	7da000ef          	jal	ra,80000c44 <iprintf>
D:\e203_35T\nuclei_project\hello_world\Debug/../hbird_sdk/SoC/hbirdv2/Common/Source/system_hbirdv2.c:188
    printf("MTVAL : 0x%lx\r\n", __RV_CSR_READ(CSR_MBADADDR));
8000046e:	343025f3          	csrr	a1,mtval
D:\e203_35T\nuclei_project\hello_world\Debug/../hbird_sdk/SoC/hbirdv2/Common/Source/system_hbirdv2.c:189
}
80000472:	4422                	lw	s0,8(sp)
80000474:	40b2                	lw	ra,12(sp)
D:\e203_35T\nuclei_project\hello_world\Debug/../hbird_sdk/SoC/hbirdv2/Common/Source/system_hbirdv2.c:188
    printf("MTVAL : 0x%lx\r\n", __RV_CSR_READ(CSR_MBADADDR));
80000476:	00002517          	auipc	a0,0x2
8000047a:	cd650513          	addi	a0,a0,-810 # 8000214c <_getpid_r+0x3a>
D:\e203_35T\nuclei_project\hello_world\Debug/../hbird_sdk/SoC/hbirdv2/Common/Source/system_hbirdv2.c:189
}
8000047e:	0141                	addi	sp,sp,16
D:\e203_35T\nuclei_project\hello_world\Debug/../hbird_sdk/SoC/hbirdv2/Common/Source/system_hbirdv2.c:188
    printf("MTVAL : 0x%lx\r\n", __RV_CSR_READ(CSR_MBADADDR));
80000480:	7c40006f          	j	80000c44 <iprintf>

80000484 <SystemInit>:
SystemInit():
D:\e203_35T\nuclei_project\hello_world\Debug/../hbird_sdk/SoC/hbirdv2/Common/Source/system_hbirdv2.c:125
    SystemCoreClock = SYSTEM_CLOCK;
80000484:	04c4b7b7          	lui	a5,0x4c4b
80000488:	40078793          	addi	a5,a5,1024 # 4c4b400 <__stack_size+0x4c4ac00>
8000048c:	80f1a223          	sw	a5,-2044(gp) # 90000064 <SystemCoreClock>
D:\e203_35T\nuclei_project\hello_world\Debug/../hbird_sdk/SoC/hbirdv2/Common/Source/system_hbirdv2.c:126
}
80000490:	8082                	ret

80000492 <core_trap_handler>:
core_trap_handler():
D:\e203_35T\nuclei_project\hello_world\Debug/../hbird_sdk/SoC/hbirdv2/Common/Source/system_hbirdv2.c:322
 * - If you want to register core exception handler, please use \ref Exception_Register_EXC
 * - If you want to register core interrupt handler, please use \ref Interrupt_Register_CoreIRQ
 * - If you want to register external interrupt handler, please use \ref Interrupt_Register_ExtIRQ
 */
uint32_t core_trap_handler(unsigned long mcause, unsigned long sp)
{
80000492:	1141                	addi	sp,sp,-16
D:\e203_35T\nuclei_project\hello_world\Debug/../hbird_sdk/SoC/hbirdv2/Common/Source/system_hbirdv2.c:325
    if (mcause & MCAUSE_INTERRUPT) {
        INT_HANDLER int_handler = NULL;
        uint32_t irqn = (uint32_t)(mcause & 0X00000fff);
80000494:	01451793          	slli	a5,a0,0x14
D:\e203_35T\nuclei_project\hello_world\Debug/../hbird_sdk/SoC/hbirdv2/Common/Source/system_hbirdv2.c:322
{
80000498:	c606                	sw	ra,12(sp)
8000049a:	c422                	sw	s0,8(sp)
D:\e203_35T\nuclei_project\hello_world\Debug/../hbird_sdk/SoC/hbirdv2/Common/Source/system_hbirdv2.c:325
        uint32_t irqn = (uint32_t)(mcause & 0X00000fff);
8000049c:	83d1                	srli	a5,a5,0x14
D:\e203_35T\nuclei_project\hello_world\Debug/../hbird_sdk/SoC/hbirdv2/Common/Source/system_hbirdv2.c:323
    if (mcause & MCAUSE_INTERRUPT) {
8000049e:	02055163          	bgez	a0,800004c0 <core_trap_handler+0x2e>
D:\e203_35T\nuclei_project\hello_world\Debug/../hbird_sdk/SoC/hbirdv2/Common/Source/system_hbirdv2.c:326
        if (irqn == IRQ_M_EXT) {
800004a2:	472d                	li	a4,11
800004a4:	04e78363          	beq	a5,a4,800004ea <core_trap_handler+0x58>
D:\e203_35T\nuclei_project\hello_world\Debug/../hbird_sdk/SoC/hbirdv2/Common/Source/system_hbirdv2.c:338
                }
                PLIC_CompleteInterrupt(irqn);
            }
#endif
        } else {
            int_handler = (INT_HANDLER)(SystemCoreInterruptHandlers[irqn]);
800004a8:	078a                	slli	a5,a5,0x2
800004aa:	82418713          	addi	a4,gp,-2012 # 90000084 <SystemCoreInterruptHandlers>
800004ae:	97ba                	add	a5,a5,a4
800004b0:	439c                	lw	a5,0(a5)
D:\e203_35T\nuclei_project\hello_world\Debug/../hbird_sdk/SoC/hbirdv2/Common/Source/system_hbirdv2.c:339
            if (int_handler != NULL) {
800004b2:	c391                	beqz	a5,800004b6 <core_trap_handler+0x24>
core_exception_handler():
D:\e203_35T\nuclei_project\hello_world\Debug/../hbird_sdk/SoC/hbirdv2/Common/Source/system_hbirdv2.c:371
        exc_handler = (EXC_HANDLER)SystemExceptionHandlers[EXCn];
    } else {
        exc_handler = (EXC_HANDLER)system_default_exception_handler;
    }
    if (exc_handler != NULL) {
        exc_handler(mcause, sp);
800004b4:	9782                	jalr	a5
core_trap_handler():
D:\e203_35T\nuclei_project\hello_world\Debug/../hbird_sdk/SoC/hbirdv2/Common/Source/system_hbirdv2.c:347
}
800004b6:	40b2                	lw	ra,12(sp)
800004b8:	4422                	lw	s0,8(sp)
800004ba:	4501                	li	a0,0
800004bc:	0141                	addi	sp,sp,16
800004be:	8082                	ret
core_exception_handler():
D:\e203_35T\nuclei_project\hello_world\Debug/../hbird_sdk/SoC/hbirdv2/Common/Source/system_hbirdv2.c:365
    if ((EXCn < MAX_SYSTEM_EXCEPTION_NUM) && (EXCn >= 0)) {
800004c0:	4629                	li	a2,10
800004c2:	872a                	mv	a4,a0
800004c4:	86ae                	mv	a3,a1
800004c6:	00f66b63          	bltu	a2,a5,800004dc <core_trap_handler+0x4a>
D:\e203_35T\nuclei_project\hello_world\Debug/../hbird_sdk/SoC/hbirdv2/Common/Source/system_hbirdv2.c:366
        exc_handler = (EXC_HANDLER)SystemExceptionHandlers[EXCn];
800004ca:	078a                	slli	a5,a5,0x2
800004cc:	84c18613          	addi	a2,gp,-1972 # 900000ac <SystemExceptionHandlers>
800004d0:	97b2                	add	a5,a5,a2
800004d2:	439c                	lw	a5,0(a5)
D:\e203_35T\nuclei_project\hello_world\Debug/../hbird_sdk/SoC/hbirdv2/Common/Source/system_hbirdv2.c:370
    if (exc_handler != NULL) {
800004d4:	d3ed                	beqz	a5,800004b6 <core_trap_handler+0x24>
D:\e203_35T\nuclei_project\hello_world\Debug/../hbird_sdk/SoC/hbirdv2/Common/Source/system_hbirdv2.c:371
        exc_handler(mcause, sp);
800004d6:	85b6                	mv	a1,a3
800004d8:	853a                	mv	a0,a4
800004da:	bfe9                	j	800004b4 <core_trap_handler+0x22>
D:\e203_35T\nuclei_project\hello_world\Debug/../hbird_sdk/SoC/hbirdv2/Common/Source/system_hbirdv2.c:368
        exc_handler = (EXC_HANDLER)system_default_exception_handler;
800004dc:	00000797          	auipc	a5,0x0
800004e0:	f1c78793          	addi	a5,a5,-228 # 800003f8 <system_default_exception_handler>
D:\e203_35T\nuclei_project\hello_world\Debug/../hbird_sdk/SoC/hbirdv2/Common/Source/system_hbirdv2.c:371
        exc_handler(mcause, sp);
800004e4:	85b6                	mv	a1,a3
800004e6:	853a                	mv	a0,a4
800004e8:	b7f1                	j	800004b4 <core_trap_handler+0x22>
PLIC_ClaimInterrupt():
D:\e203_35T\nuclei_project\hello_world\hbird_sdk\NMSIS\Core\Include/core_feature_plic.h:273
 * \sa
 * - \ref PLIC_CompleteInterrupt
 */
__STATIC_FORCEINLINE uint32_t PLIC_ClaimInterrupt(void)
{
    uint32_t hartid = __RV_CSR_READ(CSR_MHARTID);
800004ea:	f14027f3          	csrr	a5,mhartid
D:\e203_35T\nuclei_project\hello_world\hbird_sdk\NMSIS\Core\Include/core_feature_plic.h:274
    volatile uint32_t *claim_reg = (uint32_t *)((PLIC_BASE) + PLIC_CLAIM_OFFSET + \
800004ee:	0c200737          	lui	a4,0xc200
D:\e203_35T\nuclei_project\hello_world\hbird_sdk\NMSIS\Core\Include/core_feature_plic.h:275
                    + (hartid << PLIC_CLAIM_SHIFT_PER_TARGET));
800004f2:	07b2                	slli	a5,a5,0xc
D:\e203_35T\nuclei_project\hello_world\hbird_sdk\NMSIS\Core\Include/core_feature_plic.h:274
    volatile uint32_t *claim_reg = (uint32_t *)((PLIC_BASE) + PLIC_CLAIM_OFFSET + \
800004f4:	0711                	addi	a4,a4,4
800004f6:	97ba                	add	a5,a5,a4
D:\e203_35T\nuclei_project\hello_world\hbird_sdk\NMSIS\Core\Include/core_feature_plic.h:277

    return (*claim_reg);
800004f8:	4380                	lw	s0,0(a5)
core_trap_handler():
D:\e203_35T\nuclei_project\hello_world\Debug/../hbird_sdk/SoC/hbirdv2/Common/Source/system_hbirdv2.c:329
            if (irqn < __PLIC_INTNUM) {
800004fa:	47c1                	li	a5,16
800004fc:	fa87ede3          	bltu	a5,s0,800004b6 <core_trap_handler+0x24>
D:\e203_35T\nuclei_project\hello_world\Debug/../hbird_sdk/SoC/hbirdv2/Common/Source/system_hbirdv2.c:330
                int_handler = (INT_HANDLER)(SystemExtInterruptHandlers[irqn]);
80000500:	00241713          	slli	a4,s0,0x2
80000504:	87818793          	addi	a5,gp,-1928 # 900000d8 <SystemExtInterruptHandlers>
80000508:	97ba                	add	a5,a5,a4
8000050a:	439c                	lw	a5,0(a5)
D:\e203_35T\nuclei_project\hello_world\Debug/../hbird_sdk/SoC/hbirdv2/Common/Source/system_hbirdv2.c:331
                if (int_handler != NULL) {
8000050c:	c391                	beqz	a5,80000510 <core_trap_handler+0x7e>
D:\e203_35T\nuclei_project\hello_world\Debug/../hbird_sdk/SoC/hbirdv2/Common/Source/system_hbirdv2.c:332
                    int_handler(mcause, sp);
8000050e:	9782                	jalr	a5
PLIC_CompleteInterrupt():
D:\e203_35T\nuclei_project\hello_world\hbird_sdk\NMSIS\Core\Include/core_feature_plic.h:298
 * \sa
 * - \ref PLIC_ClaimInterrupt
 */
__STATIC_FORCEINLINE void PLIC_CompleteInterrupt(uint32_t source)
{
    uint32_t hartid = __RV_CSR_READ(CSR_MHARTID);
80000510:	f14027f3          	csrr	a5,mhartid
D:\e203_35T\nuclei_project\hello_world\hbird_sdk\NMSIS\Core\Include/core_feature_plic.h:299
    volatile uint32_t *complete_reg = (uint32_t *)((PLIC_BASE) + PLIC_CLAIM_OFFSET + \
80000514:	0c200737          	lui	a4,0xc200
D:\e203_35T\nuclei_project\hello_world\hbird_sdk\NMSIS\Core\Include/core_feature_plic.h:300
                    + (hartid << PLIC_CLAIM_SHIFT_PER_TARGET));
80000518:	07b2                	slli	a5,a5,0xc
D:\e203_35T\nuclei_project\hello_world\hbird_sdk\NMSIS\Core\Include/core_feature_plic.h:299
    volatile uint32_t *complete_reg = (uint32_t *)((PLIC_BASE) + PLIC_CLAIM_OFFSET + \
8000051a:	0711                	addi	a4,a4,4
8000051c:	97ba                	add	a5,a5,a4
D:\e203_35T\nuclei_project\hello_world\hbird_sdk\NMSIS\Core\Include/core_feature_plic.h:302

    *complete_reg = source;
8000051e:	c380                	sw	s0,0(a5)
D:\e203_35T\nuclei_project\hello_world\hbird_sdk\NMSIS\Core\Include/core_feature_plic.h:303
}
80000520:	bf59                	j	800004b6 <core_trap_handler+0x24>

80000522 <_premain_init>:
_premain_init():
D:\e203_35T\nuclei_project\hello_world\Debug/../hbird_sdk/SoC/hbirdv2/Common/Source/system_hbirdv2.c:464
 * For RISC-V gnu toolchain, _init function might not be called
 * by __libc_init_array function, so we defined a new function
 * to do initialization
 */
void _premain_init(void)
{
80000522:	1141                	addi	sp,sp,-16
80000524:	c606                	sw	ra,12(sp)
80000526:	c422                	sw	s0,8(sp)
D:\e203_35T\nuclei_project\hello_world\Debug/../hbird_sdk/SoC/hbirdv2/Common/Source/system_hbirdv2.c:466
    /* TODO: Add your own initialization code here, called before main */
    SystemCoreClock = get_cpu_freq();
80000528:	3d7d                	jal	800003e6 <get_cpu_freq>
8000052a:	87aa                	mv	a5,a0
8000052c:	80418413          	addi	s0,gp,-2044 # 90000064 <SystemCoreClock>
D:\e203_35T\nuclei_project\hello_world\Debug/../hbird_sdk/SoC/hbirdv2/Common/Source/system_hbirdv2.c:468
#if ! defined(SIMULATION_SPIKE) && ! defined(SIMULATION_XLSPIKE)
    gpio_iof_config(GPIOA, IOF_UART_MASK);
80000530:	000305b7          	lui	a1,0x30
80000534:	10012537          	lui	a0,0x10012
D:\e203_35T\nuclei_project\hello_world\Debug/../hbird_sdk/SoC/hbirdv2/Common/Source/system_hbirdv2.c:466
    SystemCoreClock = get_cpu_freq();
80000538:	c01c                	sw	a5,0(s0)
D:\e203_35T\nuclei_project\hello_world\Debug/../hbird_sdk/SoC/hbirdv2/Common/Source/system_hbirdv2.c:468
    gpio_iof_config(GPIOA, IOF_UART_MASK);
8000053a:	336d                	jal	800002e4 <gpio_iof_config>
D:\e203_35T\nuclei_project\hello_world\Debug/../hbird_sdk/SoC/hbirdv2/Common/Source/system_hbirdv2.c:469
    uart_init(SOC_DEBUG_UART, 115200);
8000053c:	65f1                	lui	a1,0x1c
8000053e:	20058593          	addi	a1,a1,512 # 1c200 <__stack_size+0x1ba00>
80000542:	10013537          	lui	a0,0x10013
80000546:	3bd1                	jal	8000031a <uart_init>
SystemBannerPrint():
D:\e203_35T\nuclei_project\hello_world\Debug/../hbird_sdk/SoC/hbirdv2/Common/Source/system_hbirdv2.c:381
    printf("HummingBird SDK Build Time: %s, %s\r\n", __DATE__, __TIME__);
80000548:	00002617          	auipc	a2,0x2
8000054c:	c2860613          	addi	a2,a2,-984 # 80002170 <_getpid_r+0x5e>
80000550:	00002597          	auipc	a1,0x2
80000554:	c2c58593          	addi	a1,a1,-980 # 8000217c <_getpid_r+0x6a>
80000558:	00002517          	auipc	a0,0x2
8000055c:	c3050513          	addi	a0,a0,-976 # 80002188 <_getpid_r+0x76>
80000560:	25d5                	jal	80000c44 <iprintf>
D:\e203_35T\nuclei_project\hello_world\Debug/../hbird_sdk/SoC/hbirdv2/Common/Source/system_hbirdv2.c:383
    printf("Download Mode: %s\r\n", DOWNLOAD_MODE_STRING);
80000562:	00002597          	auipc	a1,0x2
80000566:	c4e58593          	addi	a1,a1,-946 # 800021b0 <_getpid_r+0x9e>
8000056a:	00002517          	auipc	a0,0x2
8000056e:	c4a50513          	addi	a0,a0,-950 # 800021b4 <_getpid_r+0xa2>
80000572:	2dc9                	jal	80000c44 <iprintf>
D:\e203_35T\nuclei_project\hello_world\Debug/../hbird_sdk/SoC/hbirdv2/Common/Source/system_hbirdv2.c:385
    printf("CPU Frequency %lu Hz\r\n", SystemCoreClock);
80000574:	400c                	lw	a1,0(s0)
80000576:	00002517          	auipc	a0,0x2
8000057a:	c5250513          	addi	a0,a0,-942 # 800021c8 <_getpid_r+0xb6>
8000057e:	25d9                	jal	80000c44 <iprintf>
Exception_Init():
D:\e203_35T\nuclei_project\hello_world\Debug/../hbird_sdk/SoC/hbirdv2/Common/Source/system_hbirdv2.c:201
        SystemExceptionHandlers[i] = (unsigned long)system_default_exception_handler;
80000580:	00000697          	auipc	a3,0x0
80000584:	e7868693          	addi	a3,a3,-392 # 800003f8 <system_default_exception_handler>
80000588:	84c18793          	addi	a5,gp,-1972 # 900000ac <SystemExceptionHandlers>
8000058c:	87818713          	addi	a4,gp,-1928 # 900000d8 <SystemExtInterruptHandlers>
80000590:	c394                	sw	a3,0(a5)
D:\e203_35T\nuclei_project\hello_world\Debug/../hbird_sdk/SoC/hbirdv2/Common/Source/system_hbirdv2.c:200
    for (int i = 0; i < MAX_SYSTEM_EXCEPTION_NUM; i++) {
80000592:	0791                	addi	a5,a5,4
80000594:	fee79ee3          	bne	a5,a4,80000590 <_premain_init+0x6e>
Interrupt_Init():
D:\e203_35T\nuclei_project\hello_world\Debug/../hbird_sdk/SoC/hbirdv2/Common/Source/system_hbirdv2.c:216
        SystemExtInterruptHandlers[i] = (unsigned long)system_default_interrupt_handler;
80000598:	00000717          	auipc	a4,0x0
8000059c:	ea470713          	addi	a4,a4,-348 # 8000043c <system_default_interrupt_handler>
800005a0:	87818793          	addi	a5,gp,-1928 # 900000d8 <SystemExtInterruptHandlers>
800005a4:	8bc18693          	addi	a3,gp,-1860 # 9000011c <misa_chars.0>
800005a8:	c398                	sw	a4,0(a5)
D:\e203_35T\nuclei_project\hello_world\Debug/../hbird_sdk/SoC/hbirdv2/Common/Source/system_hbirdv2.c:215
    for (i = 0; i < __PLIC_INTNUM; i++) {
800005aa:	0791                	addi	a5,a5,4
800005ac:	fef69ee3          	bne	a3,a5,800005a8 <_premain_init+0x86>
800005b0:	82418793          	addi	a5,gp,-2012 # 90000084 <SystemCoreInterruptHandlers>
800005b4:	84c18693          	addi	a3,gp,-1972 # 900000ac <SystemExceptionHandlers>
D:\e203_35T\nuclei_project\hello_world\Debug/../hbird_sdk/SoC/hbirdv2/Common/Source/system_hbirdv2.c:219
        SystemCoreInterruptHandlers[i] = (unsigned long)system_default_interrupt_handler;
800005b8:	c398                	sw	a4,0(a5)
D:\e203_35T\nuclei_project\hello_world\Debug/../hbird_sdk/SoC/hbirdv2/Common/Source/system_hbirdv2.c:218
    for (i = 0; i < 10; i++) {
800005ba:	0791                	addi	a5,a5,4
800005bc:	fed79ee3          	bne	a5,a3,800005b8 <_premain_init+0x96>
800005c0:	0c000637          	lui	a2,0xc000
PLIC_Init():
D:\e203_35T\nuclei_project\hello_world\hbird_sdk\NMSIS\Core\Include/core_feature_plic.h:318
 */
__STATIC_FORCEINLINE void PLIC_Init(uint32_t num_sources)
{
    uint32_t i;

    for (i = 0; i < num_sources; i ++) {
800005c4:	4681                	li	a3,0
PLIC_DisableInterrupt():
D:\e203_35T\nuclei_project\hello_world\hbird_sdk\NMSIS\Core\Include/core_feature_plic.h:193
                    (hartid << PLIC_ENABLE_SHIFT_PER_TARGET) + (source >> 5) * 4);
800005c6:	0c0028b7          	lui	a7,0xc002
D:\e203_35T\nuclei_project\hello_world\hbird_sdk\NMSIS\Core\Include/core_feature_plic.h:196
    current = current & (~(1<<(source&0x1F)));
800005ca:	4805                	li	a6,1
PLIC_Init():
D:\e203_35T\nuclei_project\hello_world\hbird_sdk\NMSIS\Core\Include/core_feature_plic.h:318
    for (i = 0; i < num_sources; i ++) {
800005cc:	4545                	li	a0,17
PLIC_DisableInterrupt():
D:\e203_35T\nuclei_project\hello_world\hbird_sdk\NMSIS\Core\Include/core_feature_plic.h:191
    uint32_t hartid = __RV_CSR_READ(CSR_MHARTID);
800005ce:	f14027f3          	csrr	a5,mhartid
D:\e203_35T\nuclei_project\hello_world\hbird_sdk\NMSIS\Core\Include/core_feature_plic.h:193
                    (hartid << PLIC_ENABLE_SHIFT_PER_TARGET) + (source >> 5) * 4);
800005d2:	079e                	slli	a5,a5,0x7
800005d4:	97c6                	add	a5,a5,a7
D:\e203_35T\nuclei_project\hello_world\hbird_sdk\NMSIS\Core\Include/core_feature_plic.h:195
    uint32_t current = *enable_reg;
800005d6:	438c                	lw	a1,0(a5)
D:\e203_35T\nuclei_project\hello_world\hbird_sdk\NMSIS\Core\Include/core_feature_plic.h:196
    current = current & (~(1<<(source&0x1F)));
800005d8:	00d81733          	sll	a4,a6,a3
800005dc:	fff74713          	not	a4,a4
800005e0:	8f6d                	and	a4,a4,a1
D:\e203_35T\nuclei_project\hello_world\hbird_sdk\NMSIS\Core\Include/core_feature_plic.h:197
    *enable_reg = current;
800005e2:	c398                	sw	a4,0(a5)
PLIC_SetPriority():
D:\e203_35T\nuclei_project\hello_world\hbird_sdk\NMSIS\Core\Include/core_feature_plic.h:237
    *priority_reg = priority;
800005e4:	00062023          	sw	zero,0(a2) # c000000 <__stack_size+0xbfff800>
PLIC_Init():
D:\e203_35T\nuclei_project\hello_world\hbird_sdk\NMSIS\Core\Include/core_feature_plic.h:318
    for (i = 0; i < num_sources; i ++) {
800005e8:	0685                	addi	a3,a3,1
800005ea:	0611                	addi	a2,a2,4
800005ec:	fea691e3          	bne	a3,a0,800005ce <_premain_init+0xac>
PLIC_SetThreshold():
D:\e203_35T\nuclei_project\hello_world\hbird_sdk\NMSIS\Core\Include/core_feature_plic.h:135
    uint32_t hartid = __RV_CSR_READ(CSR_MHARTID);
800005f0:	f14027f3          	csrr	a5,mhartid
D:\e203_35T\nuclei_project\hello_world\hbird_sdk\NMSIS\Core\Include/core_feature_plic.h:137
                    PLIC_THRESHOLD_OFFSET + (hartid << PLIC_THRESHOLD_SHIFT_PER_TARGET));
800005f4:	0c200737          	lui	a4,0xc200
_premain_init():
D:\e203_35T\nuclei_project\hello_world\Debug/../hbird_sdk/SoC/hbirdv2/Common/Source/system_hbirdv2.c:481
    Interrupt_Init();
#if defined(__PLIC_PRESENT) && __PLIC_PRESENT == 1
    /* PLIC initilization */
    PLIC_Init(__PLIC_INTNUM);
#endif
}
800005f8:	40b2                	lw	ra,12(sp)
800005fa:	4422                	lw	s0,8(sp)
PLIC_SetThreshold():
D:\e203_35T\nuclei_project\hello_world\hbird_sdk\NMSIS\Core\Include/core_feature_plic.h:137
800005fc:	07b2                	slli	a5,a5,0xc
800005fe:	97ba                	add	a5,a5,a4
D:\e203_35T\nuclei_project\hello_world\hbird_sdk\NMSIS\Core\Include/core_feature_plic.h:139
    *thresh_reg = thresh;
80000600:	0007a023          	sw	zero,0(a5)
_premain_init():
D:\e203_35T\nuclei_project\hello_world\Debug/../hbird_sdk/SoC/hbirdv2/Common/Source/system_hbirdv2.c:481
80000604:	0141                	addi	sp,sp,16
80000606:	8082                	ret

80000608 <_postmain_fini>:
_postmain_fini():
D:\e203_35T\nuclei_project\hello_world\Debug/../hbird_sdk/SoC/hbirdv2/Common/Source/system_hbirdv2.c:507
#ifdef SIMULATION_RTL
extern void rtlsim_exit(int status);
    rtlsim_exit(status);
#endif

}
80000608:	8082                	ret

8000060a <_init>:
_init():
D:\e203_35T\nuclei_project\hello_world\Debug/../hbird_sdk/SoC/hbirdv2/Common/Source/system_hbirdv2.c:521
 * Please use \ref _premain_init function now
 */
void _init(void)
{
    /* Don't put any code here, please use _premain_init now */
}
8000060a:	8082                	ret

8000060c <_fini>:
_fini():
8000060c:	8082                	ret

8000060e <print_misa>:
print_misa():
D:\e203_35T\nuclei_project\hello_world\Debug/../application/main.c:9
    CSR_MISA_Type misa_bits = (CSR_MISA_Type) __RV_CSR_READ(CSR_MISA);
8000060e:	301026f3          	csrr	a3,misa
D:\e203_35T\nuclei_project\hello_world\Debug/../application/main.c:12
    if (misa_bits.b.mxl == 1) {
80000612:	c0000737          	lui	a4,0xc0000
80000616:	00e6f7b3          	and	a5,a3,a4
8000061a:	40000637          	lui	a2,0x40000
8000061e:	1ec78c63          	beq	a5,a2,80000816 <print_misa+0x208>
D:\e203_35T\nuclei_project\hello_world\Debug/../application/main.c:15
    } else if (misa_bits.b.mxl == 2) {
80000622:	80000637          	lui	a2,0x80000
80000626:	1cc78e63          	beq	a5,a2,80000802 <print_misa+0x1f4>
D:\e203_35T\nuclei_project\hello_world\Debug/../application/main.c:18
    } else if (misa_bits.b.mxl == 3) {
8000062a:	20e78063          	beq	a5,a4,8000082a <print_misa+0x21c>
8000062e:	4701                	li	a4,0
D:\e203_35T\nuclei_project\hello_world\Debug/../application/main.c:11
    uint8_t index = 0;
80000630:	4781                	li	a5,0
80000632:	8bc18613          	addi	a2,gp,-1860 # 9000011c <misa_chars.0>
D:\e203_35T\nuclei_project\hello_world\Debug/../application/main.c:23
    if (misa_bits.b.i) {
80000636:	1006f593          	andi	a1,a3,256
8000063a:	c991                	beqz	a1,8000064e <print_misa+0x40>
D:\e203_35T\nuclei_project\hello_world\Debug/../application/main.c:24
        misa_chars[index++] = 'I';
8000063c:	0785                	addi	a5,a5,1
8000063e:	9732                	add	a4,a4,a2
80000640:	0ff7f793          	zext.b	a5,a5
80000644:	04900593          	li	a1,73
80000648:	00b70023          	sb	a1,0(a4) # c0000000 <_sp+0x2fff0000>
D:\e203_35T\nuclei_project\hello_world\Debug/../application/main.c:27
        misa_chars[index++] = 'M';
8000064c:	873e                	mv	a4,a5
D:\e203_35T\nuclei_project\hello_world\Debug/../application/main.c:26
    if (misa_bits.b.m) {
8000064e:	6585                	lui	a1,0x1
80000650:	8df5                	and	a1,a1,a3
80000652:	c991                	beqz	a1,80000666 <print_misa+0x58>
D:\e203_35T\nuclei_project\hello_world\Debug/../application/main.c:27
        misa_chars[index++] = 'M';
80000654:	0785                	addi	a5,a5,1
80000656:	9732                	add	a4,a4,a2
80000658:	0ff7f793          	zext.b	a5,a5
8000065c:	04d00593          	li	a1,77
80000660:	00b70023          	sb	a1,0(a4)
D:\e203_35T\nuclei_project\hello_world\Debug/../application/main.c:30
        misa_chars[index++] = 'A';
80000664:	873e                	mv	a4,a5
D:\e203_35T\nuclei_project\hello_world\Debug/../application/main.c:29
    if (misa_bits.b.a) {
80000666:	0016f593          	andi	a1,a3,1
8000066a:	c991                	beqz	a1,8000067e <print_misa+0x70>
D:\e203_35T\nuclei_project\hello_world\Debug/../application/main.c:30
        misa_chars[index++] = 'A';
8000066c:	0785                	addi	a5,a5,1
8000066e:	9732                	add	a4,a4,a2
80000670:	0ff7f793          	zext.b	a5,a5
80000674:	04100593          	li	a1,65
80000678:	00b70023          	sb	a1,0(a4)
D:\e203_35T\nuclei_project\hello_world\Debug/../application/main.c:33
        misa_chars[index++] = 'B';
8000067c:	873e                	mv	a4,a5
D:\e203_35T\nuclei_project\hello_world\Debug/../application/main.c:32
    if (misa_bits.b.b) {
8000067e:	0026f593          	andi	a1,a3,2
80000682:	c991                	beqz	a1,80000696 <print_misa+0x88>
D:\e203_35T\nuclei_project\hello_world\Debug/../application/main.c:33
        misa_chars[index++] = 'B';
80000684:	0785                	addi	a5,a5,1
80000686:	9732                	add	a4,a4,a2
80000688:	0ff7f793          	zext.b	a5,a5
8000068c:	04200593          	li	a1,66
80000690:	00b70023          	sb	a1,0(a4)
D:\e203_35T\nuclei_project\hello_world\Debug/../application/main.c:36
        misa_chars[index++] = 'C';
80000694:	873e                	mv	a4,a5
D:\e203_35T\nuclei_project\hello_world\Debug/../application/main.c:35
    if (misa_bits.b.c) {
80000696:	0046f593          	andi	a1,a3,4
8000069a:	c991                	beqz	a1,800006ae <print_misa+0xa0>
D:\e203_35T\nuclei_project\hello_world\Debug/../application/main.c:36
        misa_chars[index++] = 'C';
8000069c:	0785                	addi	a5,a5,1
8000069e:	9732                	add	a4,a4,a2
800006a0:	0ff7f793          	zext.b	a5,a5
800006a4:	04300593          	li	a1,67
800006a8:	00b70023          	sb	a1,0(a4)
D:\e203_35T\nuclei_project\hello_world\Debug/../application/main.c:39
        misa_chars[index++] = 'E';
800006ac:	873e                	mv	a4,a5
D:\e203_35T\nuclei_project\hello_world\Debug/../application/main.c:38
    if (misa_bits.b.e) {
800006ae:	0106f593          	andi	a1,a3,16
800006b2:	c991                	beqz	a1,800006c6 <print_misa+0xb8>
D:\e203_35T\nuclei_project\hello_world\Debug/../application/main.c:39
        misa_chars[index++] = 'E';
800006b4:	0785                	addi	a5,a5,1
800006b6:	9732                	add	a4,a4,a2
800006b8:	0ff7f793          	zext.b	a5,a5
800006bc:	04500593          	li	a1,69
800006c0:	00b70023          	sb	a1,0(a4)
D:\e203_35T\nuclei_project\hello_world\Debug/../application/main.c:42
        misa_chars[index++] = 'F';
800006c4:	873e                	mv	a4,a5
D:\e203_35T\nuclei_project\hello_world\Debug/../application/main.c:41
    if (misa_bits.b.f) {
800006c6:	0206f593          	andi	a1,a3,32
800006ca:	c991                	beqz	a1,800006de <print_misa+0xd0>
D:\e203_35T\nuclei_project\hello_world\Debug/../application/main.c:42
        misa_chars[index++] = 'F';
800006cc:	0785                	addi	a5,a5,1
800006ce:	9732                	add	a4,a4,a2
800006d0:	0ff7f793          	zext.b	a5,a5
800006d4:	04600593          	li	a1,70
800006d8:	00b70023          	sb	a1,0(a4)
D:\e203_35T\nuclei_project\hello_world\Debug/../application/main.c:45
        misa_chars[index++] = 'D';
800006dc:	873e                	mv	a4,a5
D:\e203_35T\nuclei_project\hello_world\Debug/../application/main.c:44
    if (misa_bits.b.d) {
800006de:	0086f593          	andi	a1,a3,8
800006e2:	c991                	beqz	a1,800006f6 <print_misa+0xe8>
D:\e203_35T\nuclei_project\hello_world\Debug/../application/main.c:45
        misa_chars[index++] = 'D';
800006e4:	0785                	addi	a5,a5,1
800006e6:	9732                	add	a4,a4,a2
800006e8:	0ff7f793          	zext.b	a5,a5
800006ec:	04400593          	li	a1,68
800006f0:	00b70023          	sb	a1,0(a4)
D:\e203_35T\nuclei_project\hello_world\Debug/../application/main.c:48
        misa_chars[index++] = 'Q';
800006f4:	873e                	mv	a4,a5
D:\e203_35T\nuclei_project\hello_world\Debug/../application/main.c:47
    if (misa_bits.b.q) {
800006f6:	65c1                	lui	a1,0x10
800006f8:	8df5                	and	a1,a1,a3
800006fa:	c991                	beqz	a1,8000070e <print_misa+0x100>
D:\e203_35T\nuclei_project\hello_world\Debug/../application/main.c:48
        misa_chars[index++] = 'Q';
800006fc:	0785                	addi	a5,a5,1
800006fe:	9732                	add	a4,a4,a2
80000700:	0ff7f793          	zext.b	a5,a5
80000704:	05100593          	li	a1,81
80000708:	00b70023          	sb	a1,0(a4)
D:\e203_35T\nuclei_project\hello_world\Debug/../application/main.c:51
        misa_chars[index++] = 'H';
8000070c:	873e                	mv	a4,a5
D:\e203_35T\nuclei_project\hello_world\Debug/../application/main.c:50
    if (misa_bits.b.h) {
8000070e:	0806f593          	andi	a1,a3,128
80000712:	c991                	beqz	a1,80000726 <print_misa+0x118>
D:\e203_35T\nuclei_project\hello_world\Debug/../application/main.c:51
        misa_chars[index++] = 'H';
80000714:	0785                	addi	a5,a5,1
80000716:	9732                	add	a4,a4,a2
80000718:	0ff7f793          	zext.b	a5,a5
8000071c:	04800593          	li	a1,72
80000720:	00b70023          	sb	a1,0(a4)
D:\e203_35T\nuclei_project\hello_world\Debug/../application/main.c:54
        misa_chars[index++] = 'J';
80000724:	873e                	mv	a4,a5
D:\e203_35T\nuclei_project\hello_world\Debug/../application/main.c:53
    if (misa_bits.b.j) {
80000726:	2006f593          	andi	a1,a3,512
8000072a:	c991                	beqz	a1,8000073e <print_misa+0x130>
D:\e203_35T\nuclei_project\hello_world\Debug/../application/main.c:54
        misa_chars[index++] = 'J';
8000072c:	0785                	addi	a5,a5,1
8000072e:	9732                	add	a4,a4,a2
80000730:	0ff7f793          	zext.b	a5,a5
80000734:	04a00593          	li	a1,74
80000738:	00b70023          	sb	a1,0(a4)
D:\e203_35T\nuclei_project\hello_world\Debug/../application/main.c:57
        misa_chars[index++] = 'L';
8000073c:	873e                	mv	a4,a5
D:\e203_35T\nuclei_project\hello_world\Debug/../application/main.c:56
    if (misa_bits.b.l) {
8000073e:	00b6d593          	srli	a1,a3,0xb
80000742:	8985                	andi	a1,a1,1
80000744:	c991                	beqz	a1,80000758 <print_misa+0x14a>
D:\e203_35T\nuclei_project\hello_world\Debug/../application/main.c:57
        misa_chars[index++] = 'L';
80000746:	0785                	addi	a5,a5,1
80000748:	9732                	add	a4,a4,a2
8000074a:	0ff7f793          	zext.b	a5,a5
8000074e:	04c00593          	li	a1,76
80000752:	00b70023          	sb	a1,0(a4)
D:\e203_35T\nuclei_project\hello_world\Debug/../application/main.c:60
        misa_chars[index++] = 'N';
80000756:	873e                	mv	a4,a5
D:\e203_35T\nuclei_project\hello_world\Debug/../application/main.c:59
    if (misa_bits.b.n) {
80000758:	6589                	lui	a1,0x2
8000075a:	8df5                	and	a1,a1,a3
8000075c:	c991                	beqz	a1,80000770 <print_misa+0x162>
D:\e203_35T\nuclei_project\hello_world\Debug/../application/main.c:60
        misa_chars[index++] = 'N';
8000075e:	0785                	addi	a5,a5,1
80000760:	9732                	add	a4,a4,a2
80000762:	0ff7f793          	zext.b	a5,a5
80000766:	04e00593          	li	a1,78
8000076a:	00b70023          	sb	a1,0(a4)
D:\e203_35T\nuclei_project\hello_world\Debug/../application/main.c:63
        misa_chars[index++] = 'S';
8000076e:	873e                	mv	a4,a5
D:\e203_35T\nuclei_project\hello_world\Debug/../application/main.c:62
    if (misa_bits.b.s) {
80000770:	000405b7          	lui	a1,0x40
80000774:	8df5                	and	a1,a1,a3
80000776:	c991                	beqz	a1,8000078a <print_misa+0x17c>
D:\e203_35T\nuclei_project\hello_world\Debug/../application/main.c:63
        misa_chars[index++] = 'S';
80000778:	0785                	addi	a5,a5,1
8000077a:	9732                	add	a4,a4,a2
8000077c:	0ff7f793          	zext.b	a5,a5
80000780:	05300593          	li	a1,83
80000784:	00b70023          	sb	a1,0(a4)
D:\e203_35T\nuclei_project\hello_world\Debug/../application/main.c:66
        misa_chars[index++] = 'P';
80000788:	873e                	mv	a4,a5
D:\e203_35T\nuclei_project\hello_world\Debug/../application/main.c:65
    if (misa_bits.b.p) {
8000078a:	65a1                	lui	a1,0x8
8000078c:	8df5                	and	a1,a1,a3
8000078e:	c991                	beqz	a1,800007a2 <print_misa+0x194>
D:\e203_35T\nuclei_project\hello_world\Debug/../application/main.c:66
        misa_chars[index++] = 'P';
80000790:	0785                	addi	a5,a5,1
80000792:	9732                	add	a4,a4,a2
80000794:	0ff7f793          	zext.b	a5,a5
80000798:	05000593          	li	a1,80
8000079c:	00b70023          	sb	a1,0(a4)
D:\e203_35T\nuclei_project\hello_world\Debug/../application/main.c:69
        misa_chars[index++] = 'T';
800007a0:	873e                	mv	a4,a5
D:\e203_35T\nuclei_project\hello_world\Debug/../application/main.c:68
    if (misa_bits.b.t) {
800007a2:	000805b7          	lui	a1,0x80
800007a6:	8df5                	and	a1,a1,a3
800007a8:	c991                	beqz	a1,800007bc <print_misa+0x1ae>
D:\e203_35T\nuclei_project\hello_world\Debug/../application/main.c:69
        misa_chars[index++] = 'T';
800007aa:	0785                	addi	a5,a5,1
800007ac:	9732                	add	a4,a4,a2
800007ae:	0ff7f793          	zext.b	a5,a5
800007b2:	05400593          	li	a1,84
800007b6:	00b70023          	sb	a1,0(a4)
D:\e203_35T\nuclei_project\hello_world\Debug/../application/main.c:72
        misa_chars[index++] = 'U';
800007ba:	873e                	mv	a4,a5
D:\e203_35T\nuclei_project\hello_world\Debug/../application/main.c:71
    if (misa_bits.b.u) {
800007bc:	001005b7          	lui	a1,0x100
800007c0:	8df5                	and	a1,a1,a3
800007c2:	c991                	beqz	a1,800007d6 <print_misa+0x1c8>
D:\e203_35T\nuclei_project\hello_world\Debug/../application/main.c:72
        misa_chars[index++] = 'U';
800007c4:	0785                	addi	a5,a5,1
800007c6:	9732                	add	a4,a4,a2
800007c8:	0ff7f793          	zext.b	a5,a5
800007cc:	05500593          	li	a1,85
800007d0:	00b70023          	sb	a1,0(a4)
D:\e203_35T\nuclei_project\hello_world\Debug/../application/main.c:75
        misa_chars[index++] = 'X';
800007d4:	873e                	mv	a4,a5
D:\e203_35T\nuclei_project\hello_world\Debug/../application/main.c:74
    if (misa_bits.b.x) {
800007d6:	008005b7          	lui	a1,0x800
800007da:	8eed                	and	a3,a3,a1
800007dc:	ca89                	beqz	a3,800007ee <print_misa+0x1e0>
D:\e203_35T\nuclei_project\hello_world\Debug/../application/main.c:75
        misa_chars[index++] = 'X';
800007de:	9732                	add	a4,a4,a2
800007e0:	0785                	addi	a5,a5,1
800007e2:	05800693          	li	a3,88
800007e6:	00d70023          	sb	a3,0(a4)
D:\e203_35T\nuclei_project\hello_world\Debug/../application/main.c:78
    misa_chars[index++] = '\0';
800007ea:	0ff7f713          	zext.b	a4,a5
800007ee:	9732                	add	a4,a4,a2
D:\e203_35T\nuclei_project\hello_world\Debug/../application/main.c:80
    printf("MISA: RV%s\r\n", misa_chars);
800007f0:	8bc18593          	addi	a1,gp,-1860 # 9000011c <misa_chars.0>
800007f4:	00002517          	auipc	a0,0x2
800007f8:	9ec50513          	addi	a0,a0,-1556 # 800021e0 <_getpid_r+0xce>
D:\e203_35T\nuclei_project\hello_world\Debug/../application/main.c:78
    misa_chars[index++] = '\0';
800007fc:	00070023          	sb	zero,0(a4)
D:\e203_35T\nuclei_project\hello_world\Debug/../application/main.c:80
    printf("MISA: RV%s\r\n", misa_chars);
80000800:	a191                	j	80000c44 <iprintf>
D:\e203_35T\nuclei_project\hello_world\Debug/../application/main.c:16
        misa_chars[index++] = '6';
80000802:	678d                	lui	a5,0x3
80000804:	43678793          	addi	a5,a5,1078 # 3436 <__stack_size+0x2c36>
80000808:	8bc18613          	addi	a2,gp,-1860 # 9000011c <misa_chars.0>
8000080c:	00f61023          	sh	a5,0(a2) # 80000000 <_sp+0xefff0000>
80000810:	4709                	li	a4,2
D:\e203_35T\nuclei_project\hello_world\Debug/../application/main.c:17
        misa_chars[index++] = '4';
80000812:	4789                	li	a5,2
80000814:	b50d                	j	80000636 <print_misa+0x28>
D:\e203_35T\nuclei_project\hello_world\Debug/../application/main.c:13
        misa_chars[index++] = '3';
80000816:	678d                	lui	a5,0x3
80000818:	23378793          	addi	a5,a5,563 # 3233 <__stack_size+0x2a33>
8000081c:	8bc18613          	addi	a2,gp,-1860 # 9000011c <misa_chars.0>
80000820:	00f61023          	sh	a5,0(a2)
80000824:	4709                	li	a4,2
D:\e203_35T\nuclei_project\hello_world\Debug/../application/main.c:14
        misa_chars[index++] = '2';
80000826:	4789                	li	a5,2
80000828:	b539                	j	80000636 <print_misa+0x28>
D:\e203_35T\nuclei_project\hello_world\Debug/../application/main.c:19
        misa_chars[index++] = '1';
8000082a:	678d                	lui	a5,0x3
8000082c:	8bc18613          	addi	a2,gp,-1860 # 9000011c <misa_chars.0>
80000830:	23178793          	addi	a5,a5,561 # 3231 <__stack_size+0x2a31>
80000834:	00f61023          	sh	a5,0(a2)
D:\e203_35T\nuclei_project\hello_world\Debug/../application/main.c:21
        misa_chars[index++] = '8';
80000838:	03800793          	li	a5,56
8000083c:	00f60123          	sb	a5,2(a2)
80000840:	470d                	li	a4,3
80000842:	478d                	li	a5,3
80000844:	bbcd                	j	80000636 <print_misa+0x28>

80000846 <__udivdi3>:
__udivdi3():
/home/xl_ci/toolchain/riscv-gnu-toolchain/riscv-gcc/libgcc/libgcc2.c:1319
80000846:	88aa                	mv	a7,a0
80000848:	87ae                	mv	a5,a1
__udivmoddi4():
/home/xl_ci/toolchain/riscv-gnu-toolchain/riscv-gcc/libgcc/libgcc2.c:1024
8000084a:	8832                	mv	a6,a2
/home/xl_ci/toolchain/riscv-gnu-toolchain/riscv-gcc/libgcc/libgcc2.c:1025
8000084c:	8536                	mv	a0,a3
/home/xl_ci/toolchain/riscv-gnu-toolchain/riscv-gcc/libgcc/libgcc2.c:1026
8000084e:	8346                	mv	t1,a7
/home/xl_ci/toolchain/riscv-gnu-toolchain/riscv-gcc/libgcc/libgcc2.c:1064
80000850:	20069663          	bnez	a3,80000a5c <__udivdi3+0x216>
/home/xl_ci/toolchain/riscv-gnu-toolchain/riscv-gcc/libgcc/libgcc2.c:1066
80000854:	00002697          	auipc	a3,0x2
80000858:	9e868693          	addi	a3,a3,-1560 # 8000223c <__clz_tab>
8000085c:	0ac5ff63          	bgeu	a1,a2,8000091a <__udivdi3+0xd4>
/home/xl_ci/toolchain/riscv-gnu-toolchain/riscv-gcc/libgcc/libgcc2.c:1070
80000860:	6741                	lui	a4,0x10
80000862:	0ae67563          	bgeu	a2,a4,8000090c <__udivdi3+0xc6>
80000866:	0ff00713          	li	a4,255
8000086a:	00c73733          	sltu	a4,a4,a2
8000086e:	070e                	slli	a4,a4,0x3
80000870:	00e65533          	srl	a0,a2,a4
80000874:	96aa                	add	a3,a3,a0
80000876:	0006c683          	lbu	a3,0(a3)
8000087a:	02000513          	li	a0,32
8000087e:	9736                	add	a4,a4,a3
80000880:	40e506b3          	sub	a3,a0,a4
/home/xl_ci/toolchain/riscv-gnu-toolchain/riscv-gcc/libgcc/libgcc2.c:1072
80000884:	00e50b63          	beq	a0,a4,8000089a <__udivdi3+0x54>
/home/xl_ci/toolchain/riscv-gnu-toolchain/riscv-gcc/libgcc/libgcc2.c:1078
80000888:	00d795b3          	sll	a1,a5,a3
8000088c:	00e8d733          	srl	a4,a7,a4
/home/xl_ci/toolchain/riscv-gnu-toolchain/riscv-gcc/libgcc/libgcc2.c:1077
80000890:	00d61833          	sll	a6,a2,a3
/home/xl_ci/toolchain/riscv-gnu-toolchain/riscv-gcc/libgcc/libgcc2.c:1078
80000894:	8dd9                	or	a1,a1,a4
/home/xl_ci/toolchain/riscv-gnu-toolchain/riscv-gcc/libgcc/libgcc2.c:1079
80000896:	00d89333          	sll	t1,a7,a3
/home/xl_ci/toolchain/riscv-gnu-toolchain/riscv-gcc/libgcc/libgcc2.c:1082
8000089a:	01085893          	srli	a7,a6,0x10
8000089e:	0315d6b3          	divu	a3,a1,a7
800008a2:	01081613          	slli	a2,a6,0x10
800008a6:	8241                	srli	a2,a2,0x10
800008a8:	01035793          	srli	a5,t1,0x10
800008ac:	0315f733          	remu	a4,a1,a7
800008b0:	8536                	mv	a0,a3
800008b2:	02d605b3          	mul	a1,a2,a3
800008b6:	0742                	slli	a4,a4,0x10
800008b8:	8fd9                	or	a5,a5,a4
800008ba:	00b7fc63          	bgeu	a5,a1,800008d2 <__udivdi3+0x8c>
800008be:	97c2                	add	a5,a5,a6
800008c0:	fff68513          	addi	a0,a3,-1
800008c4:	0107e763          	bltu	a5,a6,800008d2 <__udivdi3+0x8c>
800008c8:	00b7f563          	bgeu	a5,a1,800008d2 <__udivdi3+0x8c>
800008cc:	ffe68513          	addi	a0,a3,-2
800008d0:	97c2                	add	a5,a5,a6
800008d2:	8f8d                	sub	a5,a5,a1
800008d4:	0317f733          	remu	a4,a5,a7
800008d8:	0342                	slli	t1,t1,0x10
800008da:	01035313          	srli	t1,t1,0x10
800008de:	0317d7b3          	divu	a5,a5,a7
800008e2:	0742                	slli	a4,a4,0x10
800008e4:	00676333          	or	t1,a4,t1
800008e8:	02f606b3          	mul	a3,a2,a5
800008ec:	863e                	mv	a2,a5
800008ee:	00d37b63          	bgeu	t1,a3,80000904 <__udivdi3+0xbe>
800008f2:	9342                	add	t1,t1,a6
800008f4:	fff78613          	addi	a2,a5,-1
800008f8:	01036663          	bltu	t1,a6,80000904 <__udivdi3+0xbe>
800008fc:	00d37463          	bgeu	t1,a3,80000904 <__udivdi3+0xbe>
80000900:	ffe78613          	addi	a2,a5,-2
80000904:	0542                	slli	a0,a0,0x10
80000906:	8d51                	or	a0,a0,a2
/home/xl_ci/toolchain/riscv-gnu-toolchain/riscv-gcc/libgcc/libgcc2.c:1209
80000908:	4581                	li	a1,0
8000090a:	a85d                	j	800009c0 <__udivdi3+0x17a>
/home/xl_ci/toolchain/riscv-gnu-toolchain/riscv-gcc/libgcc/libgcc2.c:1070
8000090c:	01000537          	lui	a0,0x1000
80000910:	4741                	li	a4,16
80000912:	f4a66fe3          	bltu	a2,a0,80000870 <__udivdi3+0x2a>
80000916:	4761                	li	a4,24
80000918:	bfa1                	j	80000870 <__udivdi3+0x2a>
/home/xl_ci/toolchain/riscv-gnu-toolchain/riscv-gcc/libgcc/libgcc2.c:1091
8000091a:	e601                	bnez	a2,80000922 <__udivdi3+0xdc>
/home/xl_ci/toolchain/riscv-gnu-toolchain/riscv-gcc/libgcc/libgcc2.c:1092
8000091c:	4705                	li	a4,1
8000091e:	02c75833          	divu	a6,a4,a2
/home/xl_ci/toolchain/riscv-gnu-toolchain/riscv-gcc/libgcc/libgcc2.c:1094
80000922:	6741                	lui	a4,0x10
80000924:	08e87f63          	bgeu	a6,a4,800009c2 <__udivdi3+0x17c>
80000928:	0ff00713          	li	a4,255
8000092c:	01077363          	bgeu	a4,a6,80000932 <__udivdi3+0xec>
80000930:	4521                	li	a0,8
80000932:	00a85733          	srl	a4,a6,a0
80000936:	96ba                	add	a3,a3,a4
80000938:	0006c703          	lbu	a4,0(a3)
8000093c:	02000613          	li	a2,32
80000940:	972a                	add	a4,a4,a0
80000942:	40e606b3          	sub	a3,a2,a4
/home/xl_ci/toolchain/riscv-gnu-toolchain/riscv-gcc/libgcc/libgcc2.c:1096
80000946:	08e61563          	bne	a2,a4,800009d0 <__udivdi3+0x18a>
/home/xl_ci/toolchain/riscv-gnu-toolchain/riscv-gcc/libgcc/libgcc2.c:1105
8000094a:	410787b3          	sub	a5,a5,a6
/home/xl_ci/toolchain/riscv-gnu-toolchain/riscv-gcc/libgcc/libgcc2.c:1106
8000094e:	4585                	li	a1,1
/home/xl_ci/toolchain/riscv-gnu-toolchain/riscv-gcc/libgcc/libgcc2.c:1124
80000950:	01085893          	srli	a7,a6,0x10
80000954:	01081613          	slli	a2,a6,0x10
80000958:	8241                	srli	a2,a2,0x10
8000095a:	01035713          	srli	a4,t1,0x10
8000095e:	0317f6b3          	remu	a3,a5,a7
80000962:	0317d7b3          	divu	a5,a5,a7
80000966:	06c2                	slli	a3,a3,0x10
80000968:	8f55                	or	a4,a4,a3
8000096a:	02f60e33          	mul	t3,a2,a5
8000096e:	853e                	mv	a0,a5
80000970:	01c77c63          	bgeu	a4,t3,80000988 <__udivdi3+0x142>
80000974:	9742                	add	a4,a4,a6
80000976:	fff78513          	addi	a0,a5,-1
8000097a:	01076763          	bltu	a4,a6,80000988 <__udivdi3+0x142>
8000097e:	01c77563          	bgeu	a4,t3,80000988 <__udivdi3+0x142>
80000982:	ffe78513          	addi	a0,a5,-2
80000986:	9742                	add	a4,a4,a6
80000988:	41c70733          	sub	a4,a4,t3
8000098c:	031777b3          	remu	a5,a4,a7
80000990:	0342                	slli	t1,t1,0x10
80000992:	01035313          	srli	t1,t1,0x10
80000996:	03175733          	divu	a4,a4,a7
8000099a:	07c2                	slli	a5,a5,0x10
8000099c:	0067e333          	or	t1,a5,t1
800009a0:	02e606b3          	mul	a3,a2,a4
800009a4:	863a                	mv	a2,a4
800009a6:	00d37b63          	bgeu	t1,a3,800009bc <__udivdi3+0x176>
800009aa:	9342                	add	t1,t1,a6
800009ac:	fff70613          	addi	a2,a4,-1 # ffff <__stack_size+0xf7ff>
800009b0:	01036663          	bltu	t1,a6,800009bc <__udivdi3+0x176>
800009b4:	00d37463          	bgeu	t1,a3,800009bc <__udivdi3+0x176>
800009b8:	ffe70613          	addi	a2,a4,-2
800009bc:	0542                	slli	a0,a0,0x10
800009be:	8d51                	or	a0,a0,a2
__udivdi3():
/home/xl_ci/toolchain/riscv-gnu-toolchain/riscv-gcc/libgcc/libgcc2.c:1321
800009c0:	8082                	ret
__udivmoddi4():
/home/xl_ci/toolchain/riscv-gnu-toolchain/riscv-gcc/libgcc/libgcc2.c:1094
800009c2:	01000737          	lui	a4,0x1000
800009c6:	4541                	li	a0,16
800009c8:	f6e865e3          	bltu	a6,a4,80000932 <__udivdi3+0xec>
800009cc:	4561                	li	a0,24
800009ce:	b795                	j	80000932 <__udivdi3+0xec>
/home/xl_ci/toolchain/riscv-gnu-toolchain/riscv-gcc/libgcc/libgcc2.c:1114
800009d0:	00d81833          	sll	a6,a6,a3
/home/xl_ci/toolchain/riscv-gnu-toolchain/riscv-gcc/libgcc/libgcc2.c:1115
800009d4:	00e7d533          	srl	a0,a5,a4
/home/xl_ci/toolchain/riscv-gnu-toolchain/riscv-gcc/libgcc/libgcc2.c:1117
800009d8:	00d89333          	sll	t1,a7,a3
/home/xl_ci/toolchain/riscv-gnu-toolchain/riscv-gcc/libgcc/libgcc2.c:1116
800009dc:	00d797b3          	sll	a5,a5,a3
800009e0:	00e8d733          	srl	a4,a7,a4
/home/xl_ci/toolchain/riscv-gnu-toolchain/riscv-gcc/libgcc/libgcc2.c:1119
800009e4:	01085893          	srli	a7,a6,0x10
/home/xl_ci/toolchain/riscv-gnu-toolchain/riscv-gcc/libgcc/libgcc2.c:1116
800009e8:	00f76633          	or	a2,a4,a5
/home/xl_ci/toolchain/riscv-gnu-toolchain/riscv-gcc/libgcc/libgcc2.c:1119
800009ec:	03157733          	remu	a4,a0,a7
800009f0:	01081793          	slli	a5,a6,0x10
800009f4:	83c1                	srli	a5,a5,0x10
800009f6:	01065593          	srli	a1,a2,0x10
800009fa:	03155533          	divu	a0,a0,a7
800009fe:	0742                	slli	a4,a4,0x10
80000a00:	8f4d                	or	a4,a4,a1
80000a02:	02a786b3          	mul	a3,a5,a0
80000a06:	85aa                	mv	a1,a0
80000a08:	00d77c63          	bgeu	a4,a3,80000a20 <__udivdi3+0x1da>
80000a0c:	9742                	add	a4,a4,a6
80000a0e:	fff50593          	addi	a1,a0,-1 # ffffff <__stack_size+0xfff7ff>
80000a12:	01076763          	bltu	a4,a6,80000a20 <__udivdi3+0x1da>
80000a16:	00d77563          	bgeu	a4,a3,80000a20 <__udivdi3+0x1da>
80000a1a:	ffe50593          	addi	a1,a0,-2
80000a1e:	9742                	add	a4,a4,a6
80000a20:	40d706b3          	sub	a3,a4,a3
80000a24:	0316f733          	remu	a4,a3,a7
80000a28:	0642                	slli	a2,a2,0x10
80000a2a:	8241                	srli	a2,a2,0x10
80000a2c:	0316d6b3          	divu	a3,a3,a7
80000a30:	0742                	slli	a4,a4,0x10
80000a32:	02d78533          	mul	a0,a5,a3
80000a36:	00c767b3          	or	a5,a4,a2
80000a3a:	8736                	mv	a4,a3
80000a3c:	00a7fc63          	bgeu	a5,a0,80000a54 <__udivdi3+0x20e>
80000a40:	97c2                	add	a5,a5,a6
80000a42:	fff68713          	addi	a4,a3,-1
80000a46:	0107e763          	bltu	a5,a6,80000a54 <__udivdi3+0x20e>
80000a4a:	00a7f563          	bgeu	a5,a0,80000a54 <__udivdi3+0x20e>
80000a4e:	ffe68713          	addi	a4,a3,-2
80000a52:	97c2                	add	a5,a5,a6
80000a54:	05c2                	slli	a1,a1,0x10
80000a56:	8f89                	sub	a5,a5,a0
80000a58:	8dd9                	or	a1,a1,a4
80000a5a:	bddd                	j	80000950 <__udivdi3+0x10a>
/home/xl_ci/toolchain/riscv-gnu-toolchain/riscv-gcc/libgcc/libgcc2.c:1140
80000a5c:	14d5e263          	bltu	a1,a3,80000ba0 <__udivdi3+0x35a>
/home/xl_ci/toolchain/riscv-gnu-toolchain/riscv-gcc/libgcc/libgcc2.c:1159
80000a60:	6741                	lui	a4,0x10
80000a62:	02e6ff63          	bgeu	a3,a4,80000aa0 <__udivdi3+0x25a>
80000a66:	0ff00713          	li	a4,255
80000a6a:	00d735b3          	sltu	a1,a4,a3
80000a6e:	058e                	slli	a1,a1,0x3
80000a70:	00b6d533          	srl	a0,a3,a1
80000a74:	00001717          	auipc	a4,0x1
80000a78:	7c870713          	addi	a4,a4,1992 # 8000223c <__clz_tab>
80000a7c:	972a                	add	a4,a4,a0
80000a7e:	00074703          	lbu	a4,0(a4)
80000a82:	02000513          	li	a0,32
80000a86:	972e                	add	a4,a4,a1
80000a88:	40e505b3          	sub	a1,a0,a4
/home/xl_ci/toolchain/riscv-gnu-toolchain/riscv-gcc/libgcc/libgcc2.c:1160
80000a8c:	02e51163          	bne	a0,a4,80000aae <__udivdi3+0x268>
/home/xl_ci/toolchain/riscv-gnu-toolchain/riscv-gcc/libgcc/libgcc2.c:1172
80000a90:	4505                	li	a0,1
/home/xl_ci/toolchain/riscv-gnu-toolchain/riscv-gcc/libgcc/libgcc2.c:1170
80000a92:	f2f6e7e3          	bltu	a3,a5,800009c0 <__udivdi3+0x17a>
80000a96:	00c8b533          	sltu	a0,a7,a2
80000a9a:	00154513          	xori	a0,a0,1
80000a9e:	b70d                	j	800009c0 <__udivdi3+0x17a>
/home/xl_ci/toolchain/riscv-gnu-toolchain/riscv-gcc/libgcc/libgcc2.c:1159
80000aa0:	01000737          	lui	a4,0x1000
80000aa4:	45c1                	li	a1,16
80000aa6:	fce6e5e3          	bltu	a3,a4,80000a70 <__udivdi3+0x22a>
80000aaa:	45e1                	li	a1,24
80000aac:	b7d1                	j	80000a70 <__udivdi3+0x22a>
/home/xl_ci/toolchain/riscv-gnu-toolchain/riscv-gcc/libgcc/libgcc2.c:1194
80000aae:	00e65833          	srl	a6,a2,a4
80000ab2:	00b696b3          	sll	a3,a3,a1
80000ab6:	00d86833          	or	a6,a6,a3
/home/xl_ci/toolchain/riscv-gnu-toolchain/riscv-gcc/libgcc/libgcc2.c:1196
80000aba:	00e7d333          	srl	t1,a5,a4
/home/xl_ci/toolchain/riscv-gnu-toolchain/riscv-gcc/libgcc/libgcc2.c:1200
80000abe:	01085e93          	srli	t4,a6,0x10
80000ac2:	03d376b3          	remu	a3,t1,t4
/home/xl_ci/toolchain/riscv-gnu-toolchain/riscv-gcc/libgcc/libgcc2.c:1197
80000ac6:	00b797b3          	sll	a5,a5,a1
80000aca:	00e8d733          	srl	a4,a7,a4
/home/xl_ci/toolchain/riscv-gnu-toolchain/riscv-gcc/libgcc/libgcc2.c:1195
80000ace:	00b61e33          	sll	t3,a2,a1
/home/xl_ci/toolchain/riscv-gnu-toolchain/riscv-gcc/libgcc/libgcc2.c:1197
80000ad2:	00f76633          	or	a2,a4,a5
/home/xl_ci/toolchain/riscv-gnu-toolchain/riscv-gcc/libgcc/libgcc2.c:1200
80000ad6:	01081793          	slli	a5,a6,0x10
80000ada:	83c1                	srli	a5,a5,0x10
80000adc:	01065713          	srli	a4,a2,0x10
80000ae0:	03d35333          	divu	t1,t1,t4
80000ae4:	06c2                	slli	a3,a3,0x10
80000ae6:	8f55                	or	a4,a4,a3
80000ae8:	02678f33          	mul	t5,a5,t1
80000aec:	851a                	mv	a0,t1
80000aee:	01e77c63          	bgeu	a4,t5,80000b06 <__udivdi3+0x2c0>
80000af2:	9742                	add	a4,a4,a6
80000af4:	fff30513          	addi	a0,t1,-1
80000af8:	01076763          	bltu	a4,a6,80000b06 <__udivdi3+0x2c0>
80000afc:	01e77563          	bgeu	a4,t5,80000b06 <__udivdi3+0x2c0>
80000b00:	ffe30513          	addi	a0,t1,-2
80000b04:	9742                	add	a4,a4,a6
80000b06:	41e70733          	sub	a4,a4,t5
80000b0a:	03d776b3          	remu	a3,a4,t4
80000b0e:	03d75733          	divu	a4,a4,t4
80000b12:	06c2                	slli	a3,a3,0x10
80000b14:	02e78333          	mul	t1,a5,a4
80000b18:	01061793          	slli	a5,a2,0x10
80000b1c:	83c1                	srli	a5,a5,0x10
80000b1e:	8fd5                	or	a5,a5,a3
80000b20:	863a                	mv	a2,a4
80000b22:	0067fc63          	bgeu	a5,t1,80000b3a <__udivdi3+0x2f4>
80000b26:	97c2                	add	a5,a5,a6
80000b28:	fff70613          	addi	a2,a4,-1 # ffffff <__stack_size+0xfff7ff>
80000b2c:	0107e763          	bltu	a5,a6,80000b3a <__udivdi3+0x2f4>
80000b30:	0067f563          	bgeu	a5,t1,80000b3a <__udivdi3+0x2f4>
80000b34:	ffe70613          	addi	a2,a4,-2
80000b38:	97c2                	add	a5,a5,a6
80000b3a:	0542                	slli	a0,a0,0x10
/home/xl_ci/toolchain/riscv-gnu-toolchain/riscv-gcc/libgcc/libgcc2.c:1201
80000b3c:	6ec1                	lui	t4,0x10
/home/xl_ci/toolchain/riscv-gnu-toolchain/riscv-gcc/libgcc/libgcc2.c:1200
80000b3e:	8d51                	or	a0,a0,a2
/home/xl_ci/toolchain/riscv-gnu-toolchain/riscv-gcc/libgcc/libgcc2.c:1201
80000b40:	fffe8693          	addi	a3,t4,-1 # ffff <__stack_size+0xf7ff>
80000b44:	010e5613          	srli	a2,t3,0x10
80000b48:	01055813          	srli	a6,a0,0x10
/home/xl_ci/toolchain/riscv-gnu-toolchain/riscv-gcc/libgcc/libgcc2.c:1200
80000b4c:	406787b3          	sub	a5,a5,t1
/home/xl_ci/toolchain/riscv-gnu-toolchain/riscv-gcc/libgcc/libgcc2.c:1201
80000b50:	00d57333          	and	t1,a0,a3
80000b54:	00de76b3          	and	a3,t3,a3
80000b58:	02d30e33          	mul	t3,t1,a3
80000b5c:	02d806b3          	mul	a3,a6,a3
80000b60:	010e5713          	srli	a4,t3,0x10
80000b64:	02c30333          	mul	t1,t1,a2
80000b68:	9336                	add	t1,t1,a3
80000b6a:	971a                	add	a4,a4,t1
80000b6c:	02c80833          	mul	a6,a6,a2
80000b70:	00d77363          	bgeu	a4,a3,80000b76 <__udivdi3+0x330>
80000b74:	9876                	add	a6,a6,t4
80000b76:	01075693          	srli	a3,a4,0x10
80000b7a:	9836                	add	a6,a6,a3
/home/xl_ci/toolchain/riscv-gnu-toolchain/riscv-gcc/libgcc/libgcc2.c:1203
80000b7c:	0307e063          	bltu	a5,a6,80000b9c <__udivdi3+0x356>
80000b80:	d90794e3          	bne	a5,a6,80000908 <__udivdi3+0xc2>
/home/xl_ci/toolchain/riscv-gnu-toolchain/riscv-gcc/libgcc/libgcc2.c:1201
80000b84:	67c1                	lui	a5,0x10
80000b86:	17fd                	addi	a5,a5,-1
80000b88:	8f7d                	and	a4,a4,a5
80000b8a:	0742                	slli	a4,a4,0x10
80000b8c:	00fe7e33          	and	t3,t3,a5
/home/xl_ci/toolchain/riscv-gnu-toolchain/riscv-gcc/libgcc/libgcc2.c:1198
80000b90:	00b898b3          	sll	a7,a7,a1
/home/xl_ci/toolchain/riscv-gnu-toolchain/riscv-gcc/libgcc/libgcc2.c:1201
80000b94:	9772                	add	a4,a4,t3
/home/xl_ci/toolchain/riscv-gnu-toolchain/riscv-gcc/libgcc/libgcc2.c:1209
80000b96:	4581                	li	a1,0
/home/xl_ci/toolchain/riscv-gnu-toolchain/riscv-gcc/libgcc/libgcc2.c:1203
80000b98:	e2e8f4e3          	bgeu	a7,a4,800009c0 <__udivdi3+0x17a>
/home/xl_ci/toolchain/riscv-gnu-toolchain/riscv-gcc/libgcc/libgcc2.c:1205
80000b9c:	157d                	addi	a0,a0,-1
__udivdi3():
/home/xl_ci/toolchain/riscv-gnu-toolchain/riscv-gcc/libgcc/libgcc2.c:1206
80000b9e:	b3ad                	j	80000908 <__udivdi3+0xc2>
__udivmoddi4():
/home/xl_ci/toolchain/riscv-gnu-toolchain/riscv-gcc/libgcc/libgcc2.c:1145
80000ba0:	4581                	li	a1,0
/home/xl_ci/toolchain/riscv-gnu-toolchain/riscv-gcc/libgcc/libgcc2.c:1144
80000ba2:	4501                	li	a0,0
80000ba4:	bd31                	j	800009c0 <__udivdi3+0x17a>

80000ba6 <atexit>:
atexit():
80000ba6:	85aa                	mv	a1,a0
80000ba8:	4681                	li	a3,0
80000baa:	4601                	li	a2,0
80000bac:	4501                	li	a0,0
80000bae:	a179                	j	8000103c <__register_exitproc>

80000bb0 <__libc_fini_array>:
__libc_fini_array():
80000bb0:	1141                	addi	sp,sp,-16
80000bb2:	c422                	sw	s0,8(sp)
80000bb4:	c226                	sw	s1,4(sp)
80000bb6:	00002417          	auipc	s0,0x2
80000bba:	92640413          	addi	s0,s0,-1754 # 800024dc <__fsymtab_end>
80000bbe:	00002497          	auipc	s1,0x2
80000bc2:	91e48493          	addi	s1,s1,-1762 # 800024dc <__fsymtab_end>
80000bc6:	8c05                	sub	s0,s0,s1
80000bc8:	c606                	sw	ra,12(sp)
80000bca:	8409                	srai	s0,s0,0x2
80000bcc:	e411                	bnez	s0,80000bd8 <__libc_fini_array+0x28>
80000bce:	40b2                	lw	ra,12(sp)
80000bd0:	4422                	lw	s0,8(sp)
80000bd2:	4492                	lw	s1,4(sp)
80000bd4:	0141                	addi	sp,sp,16
80000bd6:	8082                	ret
80000bd8:	147d                	addi	s0,s0,-1
80000bda:	00241793          	slli	a5,s0,0x2
80000bde:	97a6                	add	a5,a5,s1
80000be0:	439c                	lw	a5,0(a5)
80000be2:	9782                	jalr	a5
80000be4:	b7e5                	j	80000bcc <__libc_fini_array+0x1c>

80000be6 <__libc_init_array>:
__libc_init_array():
80000be6:	1141                	addi	sp,sp,-16
80000be8:	c422                	sw	s0,8(sp)
80000bea:	c226                	sw	s1,4(sp)
80000bec:	00002417          	auipc	s0,0x2
80000bf0:	8f040413          	addi	s0,s0,-1808 # 800024dc <__fsymtab_end>
80000bf4:	00002497          	auipc	s1,0x2
80000bf8:	8e848493          	addi	s1,s1,-1816 # 800024dc <__fsymtab_end>
80000bfc:	8c81                	sub	s1,s1,s0
80000bfe:	c04a                	sw	s2,0(sp)
80000c00:	c606                	sw	ra,12(sp)
80000c02:	8489                	srai	s1,s1,0x2
80000c04:	4901                	li	s2,0
80000c06:	02991563          	bne	s2,s1,80000c30 <__libc_init_array+0x4a>
80000c0a:	00002417          	auipc	s0,0x2
80000c0e:	8d240413          	addi	s0,s0,-1838 # 800024dc <__fsymtab_end>
80000c12:	00002497          	auipc	s1,0x2
80000c16:	8ca48493          	addi	s1,s1,-1846 # 800024dc <__fsymtab_end>
80000c1a:	8c81                	sub	s1,s1,s0
80000c1c:	8489                	srai	s1,s1,0x2
80000c1e:	4901                	li	s2,0
80000c20:	00991d63          	bne	s2,s1,80000c3a <__libc_init_array+0x54>
80000c24:	40b2                	lw	ra,12(sp)
80000c26:	4422                	lw	s0,8(sp)
80000c28:	4492                	lw	s1,4(sp)
80000c2a:	4902                	lw	s2,0(sp)
80000c2c:	0141                	addi	sp,sp,16
80000c2e:	8082                	ret
80000c30:	401c                	lw	a5,0(s0)
80000c32:	0905                	addi	s2,s2,1
80000c34:	0411                	addi	s0,s0,4
80000c36:	9782                	jalr	a5
80000c38:	b7f9                	j	80000c06 <__libc_init_array+0x20>
80000c3a:	401c                	lw	a5,0(s0)
80000c3c:	0905                	addi	s2,s2,1
80000c3e:	0411                	addi	s0,s0,4
80000c40:	9782                	jalr	a5
80000c42:	bff9                	j	80000c20 <__libc_init_array+0x3a>

80000c44 <iprintf>:
printf():
80000c44:	715d                	addi	sp,sp,-80
80000c46:	d422                	sw	s0,40(sp)
80000c48:	d606                	sw	ra,44(sp)
80000c4a:	842a                	mv	s0,a0
80000c4c:	da2e                	sw	a1,52(sp)
80000c4e:	dc32                	sw	a2,56(sp)
80000c50:	de36                	sw	a3,60(sp)
80000c52:	c0ba                	sw	a4,64(sp)
80000c54:	c2be                	sw	a5,68(sp)
80000c56:	c4c2                	sw	a6,72(sp)
80000c58:	c6c6                	sw	a7,76(sp)
80000c5a:	8081a503          	lw	a0,-2040(gp) # 90000068 <_impure_ptr>
80000c5e:	c511                	beqz	a0,80000c6a <iprintf+0x26>
80000c60:	4d1c                	lw	a5,24(a0)
80000c62:	e781                	bnez	a5,80000c6a <iprintf+0x26>
80000c64:	c62a                	sw	a0,12(sp)
80000c66:	25cd                	jal	80001348 <__sinit>
80000c68:	4532                	lw	a0,12(sp)
80000c6a:	450c                	lw	a1,8(a0)
80000c6c:	1854                	addi	a3,sp,52
80000c6e:	8622                	mv	a2,s0
80000c70:	ce36                	sw	a3,28(sp)
80000c72:	3f1000ef          	jal	ra,80001862 <_vfiprintf_r>
80000c76:	50b2                	lw	ra,44(sp)
80000c78:	5422                	lw	s0,40(sp)
80000c7a:	6161                	addi	sp,sp,80
80000c7c:	8082                	ret

80000c7e <_puts_r>:
_puts_r():
80000c7e:	1101                	addi	sp,sp,-32
80000c80:	ca26                	sw	s1,20(sp)
80000c82:	c84a                	sw	s2,16(sp)
80000c84:	ce06                	sw	ra,28(sp)
80000c86:	cc22                	sw	s0,24(sp)
80000c88:	c64e                	sw	s3,12(sp)
80000c8a:	c452                	sw	s4,8(sp)
80000c8c:	84aa                	mv	s1,a0
80000c8e:	892e                	mv	s2,a1
80000c90:	c501                	beqz	a0,80000c98 <_puts_r+0x1a>
80000c92:	4d1c                	lw	a5,24(a0)
80000c94:	e391                	bnez	a5,80000c98 <_puts_r+0x1a>
80000c96:	2d4d                	jal	80001348 <__sinit>
80000c98:	4c9c                	lw	a5,24(s1)
80000c9a:	4480                	lw	s0,8(s1)
80000c9c:	e399                	bnez	a5,80000ca2 <_puts_r+0x24>
80000c9e:	8526                	mv	a0,s1
80000ca0:	2565                	jal	80001348 <__sinit>
80000ca2:	00001797          	auipc	a5,0x1
80000ca6:	76678793          	addi	a5,a5,1894 # 80002408 <__sf_fake_stdin>
80000caa:	02f41c63          	bne	s0,a5,80000ce2 <_puts_r+0x64>
80000cae:	40c0                	lw	s0,4(s1)
80000cb0:	00c45783          	lhu	a5,12(s0)
80000cb4:	8ba1                	andi	a5,a5,8
80000cb6:	c7b1                	beqz	a5,80000d02 <_puts_r+0x84>
80000cb8:	481c                	lw	a5,16(s0)
80000cba:	c7a1                	beqz	a5,80000d02 <_puts_r+0x84>
80000cbc:	59fd                	li	s3,-1
80000cbe:	4a29                	li	s4,10
80000cc0:	441c                	lw	a5,8(s0)
80000cc2:	00094583          	lbu	a1,0(s2)
80000cc6:	17fd                	addi	a5,a5,-1
80000cc8:	e9b1                	bnez	a1,80000d1c <_puts_r+0x9e>
80000cca:	c41c                	sw	a5,8(s0)
80000ccc:	0607de63          	bgez	a5,80000d48 <_puts_r+0xca>
80000cd0:	8622                	mv	a2,s0
80000cd2:	45a9                	li	a1,10
80000cd4:	8526                	mv	a0,s1
80000cd6:	2245                	jal	80000e76 <__swbuf_r>
80000cd8:	57fd                	li	a5,-1
80000cda:	02f50863          	beq	a0,a5,80000d0a <_puts_r+0x8c>
80000cde:	4529                	li	a0,10
80000ce0:	a035                	j	80000d0c <_puts_r+0x8e>
80000ce2:	00001797          	auipc	a5,0x1
80000ce6:	74678793          	addi	a5,a5,1862 # 80002428 <__sf_fake_stdout>
80000cea:	00f41463          	bne	s0,a5,80000cf2 <_puts_r+0x74>
80000cee:	4480                	lw	s0,8(s1)
80000cf0:	b7c1                	j	80000cb0 <_puts_r+0x32>
80000cf2:	00001797          	auipc	a5,0x1
80000cf6:	6f678793          	addi	a5,a5,1782 # 800023e8 <__sf_fake_stderr>
80000cfa:	faf41be3          	bne	s0,a5,80000cb0 <_puts_r+0x32>
80000cfe:	44c0                	lw	s0,12(s1)
80000d00:	bf45                	j	80000cb0 <_puts_r+0x32>
80000d02:	85a2                	mv	a1,s0
80000d04:	8526                	mv	a0,s1
80000d06:	2c05                	jal	80000f36 <__swsetup_r>
80000d08:	d955                	beqz	a0,80000cbc <_puts_r+0x3e>
80000d0a:	557d                	li	a0,-1
80000d0c:	40f2                	lw	ra,28(sp)
80000d0e:	4462                	lw	s0,24(sp)
80000d10:	44d2                	lw	s1,20(sp)
80000d12:	4942                	lw	s2,16(sp)
80000d14:	49b2                	lw	s3,12(sp)
80000d16:	4a22                	lw	s4,8(sp)
80000d18:	6105                	addi	sp,sp,32
80000d1a:	8082                	ret
80000d1c:	c41c                	sw	a5,8(s0)
80000d1e:	0905                	addi	s2,s2,1
80000d20:	0007d763          	bgez	a5,80000d2e <_puts_r+0xb0>
80000d24:	4c18                	lw	a4,24(s0)
80000d26:	00e7cb63          	blt	a5,a4,80000d3c <_puts_r+0xbe>
80000d2a:	01458963          	beq	a1,s4,80000d3c <_puts_r+0xbe>
80000d2e:	401c                	lw	a5,0(s0)
80000d30:	00178713          	addi	a4,a5,1
80000d34:	c018                	sw	a4,0(s0)
80000d36:	00b78023          	sb	a1,0(a5)
80000d3a:	b759                	j	80000cc0 <_puts_r+0x42>
80000d3c:	8622                	mv	a2,s0
80000d3e:	8526                	mv	a0,s1
80000d40:	2a1d                	jal	80000e76 <__swbuf_r>
80000d42:	f7351fe3          	bne	a0,s3,80000cc0 <_puts_r+0x42>
80000d46:	b7d1                	j	80000d0a <_puts_r+0x8c>
80000d48:	401c                	lw	a5,0(s0)
80000d4a:	00178713          	addi	a4,a5,1
80000d4e:	c018                	sw	a4,0(s0)
80000d50:	4729                	li	a4,10
80000d52:	00e78023          	sb	a4,0(a5)
80000d56:	b761                	j	80000cde <_puts_r+0x60>

80000d58 <puts>:
puts():
80000d58:	85aa                	mv	a1,a0
80000d5a:	8081a503          	lw	a0,-2040(gp) # 90000068 <_impure_ptr>
80000d5e:	b705                	j	80000c7e <_puts_r>

80000d60 <srand>:
srand():
80000d60:	1141                	addi	sp,sp,-16
80000d62:	c226                	sw	s1,4(sp)
80000d64:	8081a483          	lw	s1,-2040(gp) # 90000068 <_impure_ptr>
80000d68:	5c9c                	lw	a5,56(s1)
80000d6a:	c422                	sw	s0,8(sp)
80000d6c:	c606                	sw	ra,12(sp)
80000d6e:	842a                	mv	s0,a0
80000d70:	eba1                	bnez	a5,80000dc0 <srand+0x60>
80000d72:	4561                	li	a0,24
80000d74:	05b000ef          	jal	ra,800015ce <malloc>
80000d78:	dc88                	sw	a0,56(s1)
80000d7a:	ed09                	bnez	a0,80000d94 <srand+0x34>
80000d7c:	00001697          	auipc	a3,0x1
80000d80:	5c068693          	addi	a3,a3,1472 # 8000233c <__clz_tab+0x100>
80000d84:	4601                	li	a2,0
80000d86:	04200593          	li	a1,66
80000d8a:	00001517          	auipc	a0,0x1
80000d8e:	5ca50513          	addi	a0,a0,1482 # 80002354 <__clz_tab+0x118>
80000d92:	2e39                	jal	800010b0 <__assert_func>
80000d94:	abcd37b7          	lui	a5,0xabcd3
80000d98:	30e78793          	addi	a5,a5,782 # abcd330e <_sp+0x1bcc330e>
80000d9c:	c11c                	sw	a5,0(a0)
80000d9e:	e66d17b7          	lui	a5,0xe66d1
80000da2:	23478793          	addi	a5,a5,564 # e66d1234 <_sp+0x566c1234>
80000da6:	c15c                	sw	a5,4(a0)
80000da8:	0005e7b7          	lui	a5,0x5e
80000dac:	eec78793          	addi	a5,a5,-276 # 5deec <__stack_size+0x5d6ec>
80000db0:	c51c                	sw	a5,8(a0)
80000db2:	47ad                	li	a5,11
80000db4:	00f51623          	sh	a5,12(a0)
80000db8:	4705                	li	a4,1
80000dba:	4781                	li	a5,0
80000dbc:	c918                	sw	a4,16(a0)
80000dbe:	c95c                	sw	a5,20(a0)
80000dc0:	5c9c                	lw	a5,56(s1)
80000dc2:	40b2                	lw	ra,12(sp)
80000dc4:	4492                	lw	s1,4(sp)
80000dc6:	cb80                	sw	s0,16(a5)
80000dc8:	4422                	lw	s0,8(sp)
80000dca:	0007aa23          	sw	zero,20(a5)
80000dce:	0141                	addi	sp,sp,16
80000dd0:	8082                	ret

80000dd2 <rand>:
rand():
80000dd2:	1141                	addi	sp,sp,-16
80000dd4:	c422                	sw	s0,8(sp)
80000dd6:	8081a403          	lw	s0,-2040(gp) # 90000068 <_impure_ptr>
80000dda:	5c1c                	lw	a5,56(s0)
80000ddc:	c606                	sw	ra,12(sp)
80000dde:	eba1                	bnez	a5,80000e2e <rand+0x5c>
80000de0:	4561                	li	a0,24
80000de2:	7ec000ef          	jal	ra,800015ce <malloc>
80000de6:	dc08                	sw	a0,56(s0)
80000de8:	ed09                	bnez	a0,80000e02 <rand+0x30>
80000dea:	00001697          	auipc	a3,0x1
80000dee:	55268693          	addi	a3,a3,1362 # 8000233c <__clz_tab+0x100>
80000df2:	4601                	li	a2,0
80000df4:	04e00593          	li	a1,78
80000df8:	00001517          	auipc	a0,0x1
80000dfc:	55c50513          	addi	a0,a0,1372 # 80002354 <__clz_tab+0x118>
80000e00:	2c45                	jal	800010b0 <__assert_func>
80000e02:	abcd37b7          	lui	a5,0xabcd3
80000e06:	30e78793          	addi	a5,a5,782 # abcd330e <_sp+0x1bcc330e>
80000e0a:	c11c                	sw	a5,0(a0)
80000e0c:	e66d17b7          	lui	a5,0xe66d1
80000e10:	23478793          	addi	a5,a5,564 # e66d1234 <_sp+0x566c1234>
80000e14:	c15c                	sw	a5,4(a0)
80000e16:	0005e7b7          	lui	a5,0x5e
80000e1a:	eec78793          	addi	a5,a5,-276 # 5deec <__stack_size+0x5d6ec>
80000e1e:	c51c                	sw	a5,8(a0)
80000e20:	47ad                	li	a5,11
80000e22:	00f51623          	sh	a5,12(a0)
80000e26:	4705                	li	a4,1
80000e28:	4781                	li	a5,0
80000e2a:	c918                	sw	a4,16(a0)
80000e2c:	c95c                	sw	a5,20(a0)
80000e2e:	5c10                	lw	a2,56(s0)
80000e30:	4c958737          	lui	a4,0x4c958
80000e34:	5851f7b7          	lui	a5,0x5851f
80000e38:	4a14                	lw	a3,16(a2)
80000e3a:	4a48                	lw	a0,20(a2)
80000e3c:	f2d70713          	addi	a4,a4,-211 # 4c957f2d <__stack_size+0x4c95772d>
80000e40:	42d78793          	addi	a5,a5,1069 # 5851f42d <__stack_size+0x5851ec2d>
80000e44:	02f687b3          	mul	a5,a3,a5
80000e48:	40b2                	lw	ra,12(sp)
80000e4a:	4422                	lw	s0,8(sp)
80000e4c:	02e50533          	mul	a0,a0,a4
80000e50:	953e                	add	a0,a0,a5
80000e52:	02e687b3          	mul	a5,a3,a4
80000e56:	02e6b733          	mulhu	a4,a3,a4
80000e5a:	00178693          	addi	a3,a5,1
80000e5e:	ca14                	sw	a3,16(a2)
80000e60:	972a                	add	a4,a4,a0
80000e62:	00f6b533          	sltu	a0,a3,a5
80000e66:	953a                	add	a0,a0,a4
80000e68:	ca48                	sw	a0,20(a2)
80000e6a:	0506                	slli	a0,a0,0x1
80000e6c:	8105                	srli	a0,a0,0x1
80000e6e:	0141                	addi	sp,sp,16
80000e70:	8082                	ret

80000e72 <isatty>:
isatty():
80000e72:	b36ff06f          	j	800001a8 <_isatty>

80000e76 <__swbuf_r>:
__swbuf_r():
80000e76:	1101                	addi	sp,sp,-32
80000e78:	cc22                	sw	s0,24(sp)
80000e7a:	ca26                	sw	s1,20(sp)
80000e7c:	c84a                	sw	s2,16(sp)
80000e7e:	ce06                	sw	ra,28(sp)
80000e80:	c64e                	sw	s3,12(sp)
80000e82:	84aa                	mv	s1,a0
80000e84:	892e                	mv	s2,a1
80000e86:	8432                	mv	s0,a2
80000e88:	c501                	beqz	a0,80000e90 <__swbuf_r+0x1a>
80000e8a:	4d1c                	lw	a5,24(a0)
80000e8c:	e391                	bnez	a5,80000e90 <__swbuf_r+0x1a>
80000e8e:	296d                	jal	80001348 <__sinit>
80000e90:	00001797          	auipc	a5,0x1
80000e94:	57878793          	addi	a5,a5,1400 # 80002408 <__sf_fake_stdin>
80000e98:	06f41963          	bne	s0,a5,80000f0a <__swbuf_r+0x94>
80000e9c:	40c0                	lw	s0,4(s1)
80000e9e:	4c1c                	lw	a5,24(s0)
80000ea0:	c41c                	sw	a5,8(s0)
80000ea2:	00c45783          	lhu	a5,12(s0)
80000ea6:	8ba1                	andi	a5,a5,8
80000ea8:	c3c9                	beqz	a5,80000f2a <__swbuf_r+0xb4>
80000eaa:	481c                	lw	a5,16(s0)
80000eac:	cfbd                	beqz	a5,80000f2a <__swbuf_r+0xb4>
80000eae:	481c                	lw	a5,16(s0)
80000eb0:	4008                	lw	a0,0(s0)
80000eb2:	0ff97993          	zext.b	s3,s2
80000eb6:	0ff97913          	zext.b	s2,s2
80000eba:	8d1d                	sub	a0,a0,a5
80000ebc:	485c                	lw	a5,20(s0)
80000ebe:	00f54663          	blt	a0,a5,80000eca <__swbuf_r+0x54>
80000ec2:	85a2                	mv	a1,s0
80000ec4:	8526                	mv	a0,s1
80000ec6:	26a5                	jal	8000122e <_fflush_r>
80000ec8:	e52d                	bnez	a0,80000f32 <__swbuf_r+0xbc>
80000eca:	441c                	lw	a5,8(s0)
80000ecc:	0505                	addi	a0,a0,1
80000ece:	17fd                	addi	a5,a5,-1
80000ed0:	c41c                	sw	a5,8(s0)
80000ed2:	401c                	lw	a5,0(s0)
80000ed4:	00178713          	addi	a4,a5,1
80000ed8:	c018                	sw	a4,0(s0)
80000eda:	01378023          	sb	s3,0(a5)
80000ede:	485c                	lw	a5,20(s0)
80000ee0:	00a78963          	beq	a5,a0,80000ef2 <__swbuf_r+0x7c>
80000ee4:	00c45783          	lhu	a5,12(s0)
80000ee8:	8b85                	andi	a5,a5,1
80000eea:	cb81                	beqz	a5,80000efa <__swbuf_r+0x84>
80000eec:	47a9                	li	a5,10
80000eee:	00f91663          	bne	s2,a5,80000efa <__swbuf_r+0x84>
80000ef2:	85a2                	mv	a1,s0
80000ef4:	8526                	mv	a0,s1
80000ef6:	2e25                	jal	8000122e <_fflush_r>
80000ef8:	ed0d                	bnez	a0,80000f32 <__swbuf_r+0xbc>
80000efa:	40f2                	lw	ra,28(sp)
80000efc:	4462                	lw	s0,24(sp)
80000efe:	44d2                	lw	s1,20(sp)
80000f00:	49b2                	lw	s3,12(sp)
80000f02:	854a                	mv	a0,s2
80000f04:	4942                	lw	s2,16(sp)
80000f06:	6105                	addi	sp,sp,32
80000f08:	8082                	ret
80000f0a:	00001797          	auipc	a5,0x1
80000f0e:	51e78793          	addi	a5,a5,1310 # 80002428 <__sf_fake_stdout>
80000f12:	00f41463          	bne	s0,a5,80000f1a <__swbuf_r+0xa4>
80000f16:	4480                	lw	s0,8(s1)
80000f18:	b759                	j	80000e9e <__swbuf_r+0x28>
80000f1a:	00001797          	auipc	a5,0x1
80000f1e:	4ce78793          	addi	a5,a5,1230 # 800023e8 <__sf_fake_stderr>
80000f22:	f6f41ee3          	bne	s0,a5,80000e9e <__swbuf_r+0x28>
80000f26:	44c0                	lw	s0,12(s1)
80000f28:	bf9d                	j	80000e9e <__swbuf_r+0x28>
80000f2a:	85a2                	mv	a1,s0
80000f2c:	8526                	mv	a0,s1
80000f2e:	2021                	jal	80000f36 <__swsetup_r>
80000f30:	dd3d                	beqz	a0,80000eae <__swbuf_r+0x38>
80000f32:	597d                	li	s2,-1
80000f34:	b7d9                	j	80000efa <__swbuf_r+0x84>

80000f36 <__swsetup_r>:
__swsetup_r():
80000f36:	1141                	addi	sp,sp,-16
80000f38:	c422                	sw	s0,8(sp)
80000f3a:	c226                	sw	s1,4(sp)
80000f3c:	c04a                	sw	s2,0(sp)
80000f3e:	c606                	sw	ra,12(sp)
80000f40:	8081a483          	lw	s1,-2040(gp) # 90000068 <_impure_ptr>
80000f44:	892a                	mv	s2,a0
80000f46:	842e                	mv	s0,a1
80000f48:	c489                	beqz	s1,80000f52 <__swsetup_r+0x1c>
80000f4a:	4c9c                	lw	a5,24(s1)
80000f4c:	e399                	bnez	a5,80000f52 <__swsetup_r+0x1c>
80000f4e:	8526                	mv	a0,s1
80000f50:	2ee5                	jal	80001348 <__sinit>
80000f52:	00001797          	auipc	a5,0x1
80000f56:	4b678793          	addi	a5,a5,1206 # 80002408 <__sf_fake_stdin>
80000f5a:	02f41763          	bne	s0,a5,80000f88 <__swsetup_r+0x52>
80000f5e:	40c0                	lw	s0,4(s1)
80000f60:	00c41783          	lh	a5,12(s0)
80000f64:	01079713          	slli	a4,a5,0x10
80000f68:	0087f693          	andi	a3,a5,8
80000f6c:	8341                	srli	a4,a4,0x10
80000f6e:	eaad                	bnez	a3,80000fe0 <__swsetup_r+0xaa>
80000f70:	01077693          	andi	a3,a4,16
80000f74:	ea95                	bnez	a3,80000fa8 <__swsetup_r+0x72>
80000f76:	4725                	li	a4,9
80000f78:	00e92023          	sw	a4,0(s2)
80000f7c:	0407e793          	ori	a5,a5,64
80000f80:	00f41623          	sh	a5,12(s0)
80000f84:	557d                	li	a0,-1
80000f86:	a871                	j	80001022 <__swsetup_r+0xec>
80000f88:	00001797          	auipc	a5,0x1
80000f8c:	4a078793          	addi	a5,a5,1184 # 80002428 <__sf_fake_stdout>
80000f90:	00f41463          	bne	s0,a5,80000f98 <__swsetup_r+0x62>
80000f94:	4480                	lw	s0,8(s1)
80000f96:	b7e9                	j	80000f60 <__swsetup_r+0x2a>
80000f98:	00001797          	auipc	a5,0x1
80000f9c:	45078793          	addi	a5,a5,1104 # 800023e8 <__sf_fake_stderr>
80000fa0:	fcf410e3          	bne	s0,a5,80000f60 <__swsetup_r+0x2a>
80000fa4:	44c0                	lw	s0,12(s1)
80000fa6:	bf6d                	j	80000f60 <__swsetup_r+0x2a>
80000fa8:	8b11                	andi	a4,a4,4
80000faa:	c70d                	beqz	a4,80000fd4 <__swsetup_r+0x9e>
80000fac:	584c                	lw	a1,52(s0)
80000fae:	c989                	beqz	a1,80000fc0 <__swsetup_r+0x8a>
80000fb0:	04440793          	addi	a5,s0,68
80000fb4:	00f58463          	beq	a1,a5,80000fbc <__swsetup_r+0x86>
80000fb8:	854a                	mv	a0,s2
80000fba:	25d1                	jal	8000167e <_free_r>
80000fbc:	02042a23          	sw	zero,52(s0)
80000fc0:	00c45783          	lhu	a5,12(s0)
80000fc4:	00042223          	sw	zero,4(s0)
80000fc8:	fdb7f793          	andi	a5,a5,-37
80000fcc:	00f41623          	sh	a5,12(s0)
80000fd0:	481c                	lw	a5,16(s0)
80000fd2:	c01c                	sw	a5,0(s0)
80000fd4:	00c45783          	lhu	a5,12(s0)
80000fd8:	0087e793          	ori	a5,a5,8
80000fdc:	00f41623          	sh	a5,12(s0)
80000fe0:	481c                	lw	a5,16(s0)
80000fe2:	ef81                	bnez	a5,80000ffa <__swsetup_r+0xc4>
80000fe4:	00c45783          	lhu	a5,12(s0)
80000fe8:	20000713          	li	a4,512
80000fec:	2807f793          	andi	a5,a5,640
80000ff0:	00e78563          	beq	a5,a4,80000ffa <__swsetup_r+0xc4>
80000ff4:	85a2                	mv	a1,s0
80000ff6:	854a                	mv	a0,s2
80000ff8:	2b25                	jal	80001530 <__smakebuf_r>
80000ffa:	00c41783          	lh	a5,12(s0)
80000ffe:	01079713          	slli	a4,a5,0x10
80001002:	0017f693          	andi	a3,a5,1
80001006:	8341                	srli	a4,a4,0x10
80001008:	c29d                	beqz	a3,8000102e <__swsetup_r+0xf8>
8000100a:	4854                	lw	a3,20(s0)
8000100c:	00042423          	sw	zero,8(s0)
80001010:	40d006b3          	neg	a3,a3
80001014:	cc14                	sw	a3,24(s0)
80001016:	4814                	lw	a3,16(s0)
80001018:	4501                	li	a0,0
8000101a:	e681                	bnez	a3,80001022 <__swsetup_r+0xec>
8000101c:	08077713          	andi	a4,a4,128
80001020:	ff31                	bnez	a4,80000f7c <__swsetup_r+0x46>
80001022:	40b2                	lw	ra,12(sp)
80001024:	4422                	lw	s0,8(sp)
80001026:	4492                	lw	s1,4(sp)
80001028:	4902                	lw	s2,0(sp)
8000102a:	0141                	addi	sp,sp,16
8000102c:	8082                	ret
8000102e:	00277693          	andi	a3,a4,2
80001032:	4601                	li	a2,0
80001034:	e291                	bnez	a3,80001038 <__swsetup_r+0x102>
80001036:	4850                	lw	a2,20(s0)
80001038:	c410                	sw	a2,8(s0)
8000103a:	bff1                	j	80001016 <__swsetup_r+0xe0>

8000103c <__register_exitproc>:
__register_exitproc():
8000103c:	88aa                	mv	a7,a0
8000103e:	81818513          	addi	a0,gp,-2024 # 90000078 <_global_atexit>
80001042:	411c                	lw	a5,0(a0)
80001044:	ef81                	bnez	a5,8000105c <__register_exitproc+0x20>
80001046:	8dc18713          	addi	a4,gp,-1828 # 9000013c <_global_atexit0>
8000104a:	c118                	sw	a4,0(a0)
8000104c:	00000513          	li	a0,0
80001050:	87ba                	mv	a5,a4
80001052:	c509                	beqz	a0,8000105c <__register_exitproc+0x20>
80001054:	411c                	lw	a5,0(a0)
80001056:	08f72423          	sw	a5,136(a4)
8000105a:	87ba                	mv	a5,a4
8000105c:	43d8                	lw	a4,4(a5)
8000105e:	487d                	li	a6,31
80001060:	557d                	li	a0,-1
80001062:	04e84663          	blt	a6,a4,800010ae <__register_exitproc+0x72>
80001066:	02088d63          	beqz	a7,800010a0 <__register_exitproc+0x64>
8000106a:	0887a803          	lw	a6,136(a5)
8000106e:	04080063          	beqz	a6,800010ae <__register_exitproc+0x72>
80001072:	00271513          	slli	a0,a4,0x2
80001076:	9542                	add	a0,a0,a6
80001078:	c110                	sw	a2,0(a0)
8000107a:	10082303          	lw	t1,256(a6)
8000107e:	4605                	li	a2,1
80001080:	00e61633          	sll	a2,a2,a4
80001084:	00c36333          	or	t1,t1,a2
80001088:	10682023          	sw	t1,256(a6)
8000108c:	08d52023          	sw	a3,128(a0)
80001090:	4689                	li	a3,2
80001092:	00d89763          	bne	a7,a3,800010a0 <__register_exitproc+0x64>
80001096:	10482683          	lw	a3,260(a6)
8000109a:	8e55                	or	a2,a2,a3
8000109c:	10c82223          	sw	a2,260(a6)
800010a0:	00170693          	addi	a3,a4,1
800010a4:	070a                	slli	a4,a4,0x2
800010a6:	c3d4                	sw	a3,4(a5)
800010a8:	97ba                	add	a5,a5,a4
800010aa:	c78c                	sw	a1,8(a5)
800010ac:	4501                	li	a0,0
800010ae:	8082                	ret

800010b0 <__assert_func>:
__assert_func():
800010b0:	1141                	addi	sp,sp,-16
800010b2:	8081a783          	lw	a5,-2040(gp) # 90000068 <_impure_ptr>
800010b6:	8832                	mv	a6,a2
800010b8:	c606                	sw	ra,12(sp)
800010ba:	88aa                	mv	a7,a0
800010bc:	872e                	mv	a4,a1
800010be:	47c8                	lw	a0,12(a5)
800010c0:	8636                	mv	a2,a3
800010c2:	00001797          	auipc	a5,0x1
800010c6:	2e678793          	addi	a5,a5,742 # 800023a8 <__clz_tab+0x16c>
800010ca:	00081763          	bnez	a6,800010d8 <__assert_func+0x28>
800010ce:	00001797          	auipc	a5,0x1
800010d2:	16a78793          	addi	a5,a5,362 # 80002238 <_getpid_r+0x126>
800010d6:	883e                	mv	a6,a5
800010d8:	86c6                	mv	a3,a7
800010da:	00001597          	auipc	a1,0x1
800010de:	2de58593          	addi	a1,a1,734 # 800023b8 <__clz_tab+0x17c>
800010e2:	2695                	jal	80001446 <fiprintf>
800010e4:	69d000ef          	jal	ra,80001f80 <abort>

800010e8 <__sflush_r>:
__sflush_r():
800010e8:	00c5d783          	lhu	a5,12(a1)
800010ec:	1101                	addi	sp,sp,-32
800010ee:	cc22                	sw	s0,24(sp)
800010f0:	ca26                	sw	s1,20(sp)
800010f2:	ce06                	sw	ra,28(sp)
800010f4:	c84a                	sw	s2,16(sp)
800010f6:	c64e                	sw	s3,12(sp)
800010f8:	0087f713          	andi	a4,a5,8
800010fc:	84aa                	mv	s1,a0
800010fe:	842e                	mv	s0,a1
80001100:	e375                	bnez	a4,800011e4 <__sflush_r+0xfc>
80001102:	41d8                	lw	a4,4(a1)
80001104:	00e04763          	bgtz	a4,80001112 <__sflush_r+0x2a>
80001108:	41b8                	lw	a4,64(a1)
8000110a:	00e04463          	bgtz	a4,80001112 <__sflush_r+0x2a>
8000110e:	4501                	li	a0,0
80001110:	a875                	j	800011cc <__sflush_r+0xe4>
80001112:	5458                	lw	a4,44(s0)
80001114:	df6d                	beqz	a4,8000110e <__sflush_r+0x26>
80001116:	6685                	lui	a3,0x1
80001118:	0004a903          	lw	s2,0(s1)
8000111c:	8ff5                	and	a5,a5,a3
8000111e:	0004a023          	sw	zero,0(s1)
80001122:	cfa5                	beqz	a5,8000119a <__sflush_r+0xb2>
80001124:	4868                	lw	a0,84(s0)
80001126:	00c45783          	lhu	a5,12(s0)
8000112a:	8b91                	andi	a5,a5,4
8000112c:	c799                	beqz	a5,8000113a <__sflush_r+0x52>
8000112e:	405c                	lw	a5,4(s0)
80001130:	8d1d                	sub	a0,a0,a5
80001132:	585c                	lw	a5,52(s0)
80001134:	c399                	beqz	a5,8000113a <__sflush_r+0x52>
80001136:	403c                	lw	a5,64(s0)
80001138:	8d1d                	sub	a0,a0,a5
8000113a:	545c                	lw	a5,44(s0)
8000113c:	500c                	lw	a1,32(s0)
8000113e:	862a                	mv	a2,a0
80001140:	4681                	li	a3,0
80001142:	8526                	mv	a0,s1
80001144:	9782                	jalr	a5
80001146:	57fd                	li	a5,-1
80001148:	00c45703          	lhu	a4,12(s0)
8000114c:	00f51d63          	bne	a0,a5,80001166 <__sflush_r+0x7e>
80001150:	4094                	lw	a3,0(s1)
80001152:	47f5                	li	a5,29
80001154:	08d7e363          	bltu	a5,a3,800011da <__sflush_r+0xf2>
80001158:	204007b7          	lui	a5,0x20400
8000115c:	0785                	addi	a5,a5,1
8000115e:	00d7d7b3          	srl	a5,a5,a3
80001162:	8b85                	andi	a5,a5,1
80001164:	cbbd                	beqz	a5,800011da <__sflush_r+0xf2>
80001166:	481c                	lw	a5,16(s0)
80001168:	00042223          	sw	zero,4(s0)
8000116c:	c01c                	sw	a5,0(s0)
8000116e:	6785                	lui	a5,0x1
80001170:	8f7d                	and	a4,a4,a5
80001172:	c719                	beqz	a4,80001180 <__sflush_r+0x98>
80001174:	57fd                	li	a5,-1
80001176:	00f51463          	bne	a0,a5,8000117e <__sflush_r+0x96>
8000117a:	409c                	lw	a5,0(s1)
8000117c:	e391                	bnez	a5,80001180 <__sflush_r+0x98>
8000117e:	c868                	sw	a0,84(s0)
80001180:	584c                	lw	a1,52(s0)
80001182:	0124a023          	sw	s2,0(s1)
80001186:	d5c1                	beqz	a1,8000110e <__sflush_r+0x26>
80001188:	04440793          	addi	a5,s0,68
8000118c:	00f58463          	beq	a1,a5,80001194 <__sflush_r+0xac>
80001190:	8526                	mv	a0,s1
80001192:	21f5                	jal	8000167e <_free_r>
80001194:	02042a23          	sw	zero,52(s0)
80001198:	bf9d                	j	8000110e <__sflush_r+0x26>
8000119a:	500c                	lw	a1,32(s0)
8000119c:	4685                	li	a3,1
8000119e:	4601                	li	a2,0
800011a0:	8526                	mv	a0,s1
800011a2:	9702                	jalr	a4
800011a4:	57fd                	li	a5,-1
800011a6:	f8f510e3          	bne	a0,a5,80001126 <__sflush_r+0x3e>
800011aa:	409c                	lw	a5,0(s1)
800011ac:	dfad                	beqz	a5,80001126 <__sflush_r+0x3e>
800011ae:	4775                	li	a4,29
800011b0:	00e78563          	beq	a5,a4,800011ba <__sflush_r+0xd2>
800011b4:	4759                	li	a4,22
800011b6:	00e79563          	bne	a5,a4,800011c0 <__sflush_r+0xd8>
800011ba:	0124a023          	sw	s2,0(s1)
800011be:	bf81                	j	8000110e <__sflush_r+0x26>
800011c0:	00c45783          	lhu	a5,12(s0)
800011c4:	0407e793          	ori	a5,a5,64
800011c8:	00f41623          	sh	a5,12(s0)
800011cc:	40f2                	lw	ra,28(sp)
800011ce:	4462                	lw	s0,24(sp)
800011d0:	44d2                	lw	s1,20(sp)
800011d2:	4942                	lw	s2,16(sp)
800011d4:	49b2                	lw	s3,12(sp)
800011d6:	6105                	addi	sp,sp,32
800011d8:	8082                	ret
800011da:	04076713          	ori	a4,a4,64
800011de:	00e41623          	sh	a4,12(s0)
800011e2:	b7ed                	j	800011cc <__sflush_r+0xe4>
800011e4:	0105a983          	lw	s3,16(a1)
800011e8:	f20983e3          	beqz	s3,8000110e <__sflush_r+0x26>
800011ec:	0005a903          	lw	s2,0(a1)
800011f0:	8b8d                	andi	a5,a5,3
800011f2:	0135a023          	sw	s3,0(a1)
800011f6:	41390933          	sub	s2,s2,s3
800011fa:	4701                	li	a4,0
800011fc:	e391                	bnez	a5,80001200 <__sflush_r+0x118>
800011fe:	49d8                	lw	a4,20(a1)
80001200:	c418                	sw	a4,8(s0)
80001202:	f12056e3          	blez	s2,8000110e <__sflush_r+0x26>
80001206:	541c                	lw	a5,40(s0)
80001208:	500c                	lw	a1,32(s0)
8000120a:	86ca                	mv	a3,s2
8000120c:	864e                	mv	a2,s3
8000120e:	8526                	mv	a0,s1
80001210:	9782                	jalr	a5
80001212:	00a04a63          	bgtz	a0,80001226 <__sflush_r+0x13e>
80001216:	00c45783          	lhu	a5,12(s0)
8000121a:	557d                	li	a0,-1
8000121c:	0407e793          	ori	a5,a5,64
80001220:	00f41623          	sh	a5,12(s0)
80001224:	b765                	j	800011cc <__sflush_r+0xe4>
80001226:	99aa                	add	s3,s3,a0
80001228:	40a90933          	sub	s2,s2,a0
8000122c:	bfd9                	j	80001202 <__sflush_r+0x11a>

8000122e <_fflush_r>:
_fflush_r():
8000122e:	499c                	lw	a5,16(a1)
80001230:	cfb9                	beqz	a5,8000128e <_fflush_r+0x60>
80001232:	1101                	addi	sp,sp,-32
80001234:	cc22                	sw	s0,24(sp)
80001236:	ce06                	sw	ra,28(sp)
80001238:	842a                	mv	s0,a0
8000123a:	c511                	beqz	a0,80001246 <_fflush_r+0x18>
8000123c:	4d1c                	lw	a5,24(a0)
8000123e:	e781                	bnez	a5,80001246 <_fflush_r+0x18>
80001240:	c62e                	sw	a1,12(sp)
80001242:	2219                	jal	80001348 <__sinit>
80001244:	45b2                	lw	a1,12(sp)
80001246:	00001797          	auipc	a5,0x1
8000124a:	1c278793          	addi	a5,a5,450 # 80002408 <__sf_fake_stdin>
8000124e:	00f59b63          	bne	a1,a5,80001264 <_fflush_r+0x36>
80001252:	404c                	lw	a1,4(s0)
80001254:	00c59783          	lh	a5,12(a1)
80001258:	c795                	beqz	a5,80001284 <_fflush_r+0x56>
8000125a:	8522                	mv	a0,s0
8000125c:	4462                	lw	s0,24(sp)
8000125e:	40f2                	lw	ra,28(sp)
80001260:	6105                	addi	sp,sp,32
80001262:	b559                	j	800010e8 <__sflush_r>
80001264:	00001797          	auipc	a5,0x1
80001268:	1c478793          	addi	a5,a5,452 # 80002428 <__sf_fake_stdout>
8000126c:	00f59463          	bne	a1,a5,80001274 <_fflush_r+0x46>
80001270:	440c                	lw	a1,8(s0)
80001272:	b7cd                	j	80001254 <_fflush_r+0x26>
80001274:	00001797          	auipc	a5,0x1
80001278:	17478793          	addi	a5,a5,372 # 800023e8 <__sf_fake_stderr>
8000127c:	fcf59ce3          	bne	a1,a5,80001254 <_fflush_r+0x26>
80001280:	444c                	lw	a1,12(s0)
80001282:	bfc9                	j	80001254 <_fflush_r+0x26>
80001284:	40f2                	lw	ra,28(sp)
80001286:	4462                	lw	s0,24(sp)
80001288:	4501                	li	a0,0
8000128a:	6105                	addi	sp,sp,32
8000128c:	8082                	ret
8000128e:	4501                	li	a0,0
80001290:	8082                	ret

80001292 <std>:
std():
80001292:	1141                	addi	sp,sp,-16
80001294:	c422                	sw	s0,8(sp)
80001296:	c606                	sw	ra,12(sp)
80001298:	842a                	mv	s0,a0
8000129a:	00b51623          	sh	a1,12(a0)
8000129e:	00c51723          	sh	a2,14(a0)
800012a2:	00052023          	sw	zero,0(a0)
800012a6:	00052223          	sw	zero,4(a0)
800012aa:	00052423          	sw	zero,8(a0)
800012ae:	06052223          	sw	zero,100(a0)
800012b2:	00052823          	sw	zero,16(a0)
800012b6:	00052a23          	sw	zero,20(a0)
800012ba:	00052c23          	sw	zero,24(a0)
800012be:	4621                	li	a2,8
800012c0:	4581                	li	a1,0
800012c2:	05c50513          	addi	a0,a0,92
800012c6:	2e01                	jal	800015d6 <memset>
800012c8:	00001797          	auipc	a5,0x1
800012cc:	bd278793          	addi	a5,a5,-1070 # 80001e9a <__sread>
800012d0:	d05c                	sw	a5,36(s0)
800012d2:	00001797          	auipc	a5,0x1
800012d6:	bf878793          	addi	a5,a5,-1032 # 80001eca <__swrite>
800012da:	d41c                	sw	a5,40(s0)
800012dc:	00001797          	auipc	a5,0x1
800012e0:	c3c78793          	addi	a5,a5,-964 # 80001f18 <__sseek>
800012e4:	d45c                	sw	a5,44(s0)
800012e6:	00001797          	auipc	a5,0x1
800012ea:	c6878793          	addi	a5,a5,-920 # 80001f4e <__sclose>
800012ee:	40b2                	lw	ra,12(sp)
800012f0:	d000                	sw	s0,32(s0)
800012f2:	d81c                	sw	a5,48(s0)
800012f4:	4422                	lw	s0,8(sp)
800012f6:	0141                	addi	sp,sp,16
800012f8:	8082                	ret

800012fa <_cleanup_r>:
_cleanup_r():
800012fa:	00000597          	auipc	a1,0x0
800012fe:	f3458593          	addi	a1,a1,-204 # 8000122e <_fflush_r>
80001302:	a2a5                	j	8000146a <_fwalk_reent>

80001304 <__sfmoreglue>:
__sfmoreglue():
80001304:	1141                	addi	sp,sp,-16
80001306:	c226                	sw	s1,4(sp)
80001308:	06800613          	li	a2,104
8000130c:	fff58493          	addi	s1,a1,-1
80001310:	02c484b3          	mul	s1,s1,a2
80001314:	c04a                	sw	s2,0(sp)
80001316:	892e                	mv	s2,a1
80001318:	c422                	sw	s0,8(sp)
8000131a:	c606                	sw	ra,12(sp)
8000131c:	07448593          	addi	a1,s1,116
80001320:	2101                	jal	80001720 <_malloc_r>
80001322:	842a                	mv	s0,a0
80001324:	c919                	beqz	a0,8000133a <__sfmoreglue+0x36>
80001326:	00052023          	sw	zero,0(a0)
8000132a:	01252223          	sw	s2,4(a0)
8000132e:	0531                	addi	a0,a0,12
80001330:	c408                	sw	a0,8(s0)
80001332:	06848613          	addi	a2,s1,104
80001336:	4581                	li	a1,0
80001338:	2c79                	jal	800015d6 <memset>
8000133a:	40b2                	lw	ra,12(sp)
8000133c:	8522                	mv	a0,s0
8000133e:	4422                	lw	s0,8(sp)
80001340:	4492                	lw	s1,4(sp)
80001342:	4902                	lw	s2,0(sp)
80001344:	0141                	addi	sp,sp,16
80001346:	8082                	ret

80001348 <__sinit>:
__sinit():
80001348:	4d1c                	lw	a5,24(a0)
8000134a:	e3ad                	bnez	a5,800013ac <__sinit+0x64>
8000134c:	1141                	addi	sp,sp,-16
8000134e:	c422                	sw	s0,8(sp)
80001350:	c606                	sw	ra,12(sp)
80001352:	00000797          	auipc	a5,0x0
80001356:	fa878793          	addi	a5,a5,-88 # 800012fa <_cleanup_r>
8000135a:	d51c                	sw	a5,40(a0)
8000135c:	04052423          	sw	zero,72(a0)
80001360:	04052623          	sw	zero,76(a0)
80001364:	04052823          	sw	zero,80(a0)
80001368:	8101a783          	lw	a5,-2032(gp) # 90000070 <_global_impure_ptr>
8000136c:	842a                	mv	s0,a0
8000136e:	00f51463          	bne	a0,a5,80001376 <__sinit+0x2e>
80001372:	4785                	li	a5,1
80001374:	cd1c                	sw	a5,24(a0)
80001376:	8522                	mv	a0,s0
80001378:	281d                	jal	800013ae <__sfp>
8000137a:	c048                	sw	a0,4(s0)
8000137c:	8522                	mv	a0,s0
8000137e:	2805                	jal	800013ae <__sfp>
80001380:	c408                	sw	a0,8(s0)
80001382:	8522                	mv	a0,s0
80001384:	202d                	jal	800013ae <__sfp>
80001386:	c448                	sw	a0,12(s0)
80001388:	4048                	lw	a0,4(s0)
8000138a:	4601                	li	a2,0
8000138c:	4591                	li	a1,4
8000138e:	3711                	jal	80001292 <std>
80001390:	4408                	lw	a0,8(s0)
80001392:	4605                	li	a2,1
80001394:	45a5                	li	a1,9
80001396:	3df5                	jal	80001292 <std>
80001398:	4448                	lw	a0,12(s0)
8000139a:	4609                	li	a2,2
8000139c:	45c9                	li	a1,18
8000139e:	3dd5                	jal	80001292 <std>
800013a0:	4785                	li	a5,1
800013a2:	40b2                	lw	ra,12(sp)
800013a4:	cc1c                	sw	a5,24(s0)
800013a6:	4422                	lw	s0,8(sp)
800013a8:	0141                	addi	sp,sp,16
800013aa:	8082                	ret
800013ac:	8082                	ret

800013ae <__sfp>:
__sfp():
800013ae:	1141                	addi	sp,sp,-16
800013b0:	c226                	sw	s1,4(sp)
800013b2:	8101a483          	lw	s1,-2032(gp) # 90000070 <_global_impure_ptr>
800013b6:	4c9c                	lw	a5,24(s1)
800013b8:	c04a                	sw	s2,0(sp)
800013ba:	c606                	sw	ra,12(sp)
800013bc:	c422                	sw	s0,8(sp)
800013be:	892a                	mv	s2,a0
800013c0:	e399                	bnez	a5,800013c6 <__sfp+0x18>
800013c2:	8526                	mv	a0,s1
800013c4:	3751                	jal	80001348 <__sinit>
800013c6:	04848493          	addi	s1,s1,72
800013ca:	4480                	lw	s0,8(s1)
800013cc:	40dc                	lw	a5,4(s1)
800013ce:	17fd                	addi	a5,a5,-1
800013d0:	0007d663          	bgez	a5,800013dc <__sfp+0x2e>
800013d4:	409c                	lw	a5,0(s1)
800013d6:	cfb1                	beqz	a5,80001432 <__sfp+0x84>
800013d8:	4084                	lw	s1,0(s1)
800013da:	bfc5                	j	800013ca <__sfp+0x1c>
800013dc:	00c41703          	lh	a4,12(s0)
800013e0:	e731                	bnez	a4,8000142c <__sfp+0x7e>
800013e2:	77c1                	lui	a5,0xffff0
800013e4:	0785                	addi	a5,a5,1
800013e6:	06042223          	sw	zero,100(s0)
800013ea:	00042023          	sw	zero,0(s0)
800013ee:	00042223          	sw	zero,4(s0)
800013f2:	00042423          	sw	zero,8(s0)
800013f6:	c45c                	sw	a5,12(s0)
800013f8:	00042823          	sw	zero,16(s0)
800013fc:	00042a23          	sw	zero,20(s0)
80001400:	00042c23          	sw	zero,24(s0)
80001404:	4621                	li	a2,8
80001406:	4581                	li	a1,0
80001408:	05c40513          	addi	a0,s0,92
8000140c:	22e9                	jal	800015d6 <memset>
8000140e:	02042a23          	sw	zero,52(s0)
80001412:	02042c23          	sw	zero,56(s0)
80001416:	04042423          	sw	zero,72(s0)
8000141a:	04042623          	sw	zero,76(s0)
8000141e:	40b2                	lw	ra,12(sp)
80001420:	8522                	mv	a0,s0
80001422:	4422                	lw	s0,8(sp)
80001424:	4492                	lw	s1,4(sp)
80001426:	4902                	lw	s2,0(sp)
80001428:	0141                	addi	sp,sp,16
8000142a:	8082                	ret
8000142c:	06840413          	addi	s0,s0,104
80001430:	bf79                	j	800013ce <__sfp+0x20>
80001432:	4591                	li	a1,4
80001434:	854a                	mv	a0,s2
80001436:	35f9                	jal	80001304 <__sfmoreglue>
80001438:	c088                	sw	a0,0(s1)
8000143a:	842a                	mv	s0,a0
8000143c:	fd51                	bnez	a0,800013d8 <__sfp+0x2a>
8000143e:	47b1                	li	a5,12
80001440:	00f92023          	sw	a5,0(s2)
80001444:	bfe9                	j	8000141e <__sfp+0x70>

80001446 <fiprintf>:
fprintf():
80001446:	7139                	addi	sp,sp,-64
80001448:	d432                	sw	a2,40(sp)
8000144a:	d636                	sw	a3,44(sp)
8000144c:	862e                	mv	a2,a1
8000144e:	1034                	addi	a3,sp,40
80001450:	85aa                	mv	a1,a0
80001452:	8081a503          	lw	a0,-2040(gp) # 90000068 <_impure_ptr>
80001456:	ce06                	sw	ra,28(sp)
80001458:	d83a                	sw	a4,48(sp)
8000145a:	da3e                	sw	a5,52(sp)
8000145c:	dc42                	sw	a6,56(sp)
8000145e:	de46                	sw	a7,60(sp)
80001460:	c636                	sw	a3,12(sp)
80001462:	2101                	jal	80001862 <_vfiprintf_r>
80001464:	40f2                	lw	ra,28(sp)
80001466:	6121                	addi	sp,sp,64
80001468:	8082                	ret

8000146a <_fwalk_reent>:
_fwalk_reent():
8000146a:	7179                	addi	sp,sp,-48
8000146c:	d422                	sw	s0,40(sp)
8000146e:	d04a                	sw	s2,32(sp)
80001470:	ce4e                	sw	s3,28(sp)
80001472:	cc52                	sw	s4,24(sp)
80001474:	c85a                	sw	s6,16(sp)
80001476:	c65e                	sw	s7,12(sp)
80001478:	d606                	sw	ra,44(sp)
8000147a:	d226                	sw	s1,36(sp)
8000147c:	ca56                	sw	s5,20(sp)
8000147e:	892a                	mv	s2,a0
80001480:	8a2e                	mv	s4,a1
80001482:	04850413          	addi	s0,a0,72
80001486:	4981                	li	s3,0
80001488:	4b05                	li	s6,1
8000148a:	5bfd                	li	s7,-1
8000148c:	4404                	lw	s1,8(s0)
8000148e:	00442a83          	lw	s5,4(s0)
80001492:	1afd                	addi	s5,s5,-1
80001494:	020ad063          	bgez	s5,800014b4 <_fwalk_reent+0x4a>
80001498:	4000                	lw	s0,0(s0)
8000149a:	f86d                	bnez	s0,8000148c <_fwalk_reent+0x22>
8000149c:	50b2                	lw	ra,44(sp)
8000149e:	5422                	lw	s0,40(sp)
800014a0:	5492                	lw	s1,36(sp)
800014a2:	5902                	lw	s2,32(sp)
800014a4:	4a62                	lw	s4,24(sp)
800014a6:	4ad2                	lw	s5,20(sp)
800014a8:	4b42                	lw	s6,16(sp)
800014aa:	4bb2                	lw	s7,12(sp)
800014ac:	854e                	mv	a0,s3
800014ae:	49f2                	lw	s3,28(sp)
800014b0:	6145                	addi	sp,sp,48
800014b2:	8082                	ret
800014b4:	00c4d783          	lhu	a5,12(s1)
800014b8:	00fb7b63          	bgeu	s6,a5,800014ce <_fwalk_reent+0x64>
800014bc:	00e49783          	lh	a5,14(s1)
800014c0:	01778763          	beq	a5,s7,800014ce <_fwalk_reent+0x64>
800014c4:	85a6                	mv	a1,s1
800014c6:	854a                	mv	a0,s2
800014c8:	9a02                	jalr	s4
800014ca:	00a9e9b3          	or	s3,s3,a0
800014ce:	06848493          	addi	s1,s1,104
800014d2:	b7c1                	j	80001492 <_fwalk_reent+0x28>

800014d4 <__swhatbuf_r>:
__swhatbuf_r():
800014d4:	7159                	addi	sp,sp,-112
800014d6:	d0ca                	sw	s2,96(sp)
800014d8:	892e                	mv	s2,a1
800014da:	00e59583          	lh	a1,14(a1)
800014de:	d4a2                	sw	s0,104(sp)
800014e0:	d2a6                	sw	s1,100(sp)
800014e2:	d686                	sw	ra,108(sp)
800014e4:	8432                	mv	s0,a2
800014e6:	84b6                	mv	s1,a3
800014e8:	0005dc63          	bgez	a1,80001500 <__swhatbuf_r+0x2c>
800014ec:	00c91783          	lh	a5,12(s2)
800014f0:	0004a023          	sw	zero,0(s1)
800014f4:	0807f793          	andi	a5,a5,128
800014f8:	e395                	bnez	a5,8000151c <__swhatbuf_r+0x48>
800014fa:	40000793          	li	a5,1024
800014fe:	a00d                	j	80001520 <__swhatbuf_r+0x4c>
80001500:	0030                	addi	a2,sp,8
80001502:	2b5000ef          	jal	ra,80001fb6 <_fstat_r>
80001506:	fe0543e3          	bltz	a0,800014ec <__swhatbuf_r+0x18>
8000150a:	4732                	lw	a4,12(sp)
8000150c:	67bd                	lui	a5,0xf
8000150e:	8ff9                	and	a5,a5,a4
80001510:	7779                	lui	a4,0xffffe
80001512:	97ba                	add	a5,a5,a4
80001514:	0017b793          	seqz	a5,a5
80001518:	c09c                	sw	a5,0(s1)
8000151a:	b7c5                	j	800014fa <__swhatbuf_r+0x26>
8000151c:	04000793          	li	a5,64
80001520:	50b6                	lw	ra,108(sp)
80001522:	c01c                	sw	a5,0(s0)
80001524:	5426                	lw	s0,104(sp)
80001526:	5496                	lw	s1,100(sp)
80001528:	5906                	lw	s2,96(sp)
8000152a:	4501                	li	a0,0
8000152c:	6165                	addi	sp,sp,112
8000152e:	8082                	ret

80001530 <__smakebuf_r>:
__smakebuf_r():
80001530:	00c5d783          	lhu	a5,12(a1)
80001534:	1101                	addi	sp,sp,-32
80001536:	cc22                	sw	s0,24(sp)
80001538:	ce06                	sw	ra,28(sp)
8000153a:	ca26                	sw	s1,20(sp)
8000153c:	c84a                	sw	s2,16(sp)
8000153e:	8b89                	andi	a5,a5,2
80001540:	842e                	mv	s0,a1
80001542:	cf89                	beqz	a5,8000155c <__smakebuf_r+0x2c>
80001544:	04740793          	addi	a5,s0,71
80001548:	c01c                	sw	a5,0(s0)
8000154a:	c81c                	sw	a5,16(s0)
8000154c:	4785                	li	a5,1
8000154e:	c85c                	sw	a5,20(s0)
80001550:	40f2                	lw	ra,28(sp)
80001552:	4462                	lw	s0,24(sp)
80001554:	44d2                	lw	s1,20(sp)
80001556:	4942                	lw	s2,16(sp)
80001558:	6105                	addi	sp,sp,32
8000155a:	8082                	ret
8000155c:	0074                	addi	a3,sp,12
8000155e:	0030                	addi	a2,sp,8
80001560:	892a                	mv	s2,a0
80001562:	3f8d                	jal	800014d4 <__swhatbuf_r>
80001564:	45a2                	lw	a1,8(sp)
80001566:	84aa                	mv	s1,a0
80001568:	854a                	mv	a0,s2
8000156a:	2a5d                	jal	80001720 <_malloc_r>
8000156c:	ed01                	bnez	a0,80001584 <__smakebuf_r+0x54>
8000156e:	00c41783          	lh	a5,12(s0)
80001572:	2007f713          	andi	a4,a5,512
80001576:	ff69                	bnez	a4,80001550 <__smakebuf_r+0x20>
80001578:	9bf1                	andi	a5,a5,-4
8000157a:	0027e793          	ori	a5,a5,2
8000157e:	00f41623          	sh	a5,12(s0)
80001582:	b7c9                	j	80001544 <__smakebuf_r+0x14>
80001584:	00000797          	auipc	a5,0x0
80001588:	d7678793          	addi	a5,a5,-650 # 800012fa <_cleanup_r>
8000158c:	02f92423          	sw	a5,40(s2)
80001590:	00c45783          	lhu	a5,12(s0)
80001594:	c008                	sw	a0,0(s0)
80001596:	c808                	sw	a0,16(s0)
80001598:	0807e793          	ori	a5,a5,128
8000159c:	00f41623          	sh	a5,12(s0)
800015a0:	47a2                	lw	a5,8(sp)
800015a2:	c85c                	sw	a5,20(s0)
800015a4:	47b2                	lw	a5,12(sp)
800015a6:	cf91                	beqz	a5,800015c2 <__smakebuf_r+0x92>
800015a8:	00e41583          	lh	a1,14(s0)
800015ac:	854a                	mv	a0,s2
800015ae:	233000ef          	jal	ra,80001fe0 <_isatty_r>
800015b2:	c901                	beqz	a0,800015c2 <__smakebuf_r+0x92>
800015b4:	00c45783          	lhu	a5,12(s0)
800015b8:	9bf1                	andi	a5,a5,-4
800015ba:	0017e793          	ori	a5,a5,1
800015be:	00f41623          	sh	a5,12(s0)
800015c2:	00c45503          	lhu	a0,12(s0)
800015c6:	8cc9                	or	s1,s1,a0
800015c8:	00941623          	sh	s1,12(s0)
800015cc:	b751                	j	80001550 <__smakebuf_r+0x20>

800015ce <malloc>:
malloc():
800015ce:	85aa                	mv	a1,a0
800015d0:	8081a503          	lw	a0,-2040(gp) # 90000068 <_impure_ptr>
800015d4:	a2b1                	j	80001720 <_malloc_r>

800015d6 <memset>:
memset():
800015d6:	433d                	li	t1,15
800015d8:	872a                	mv	a4,a0
800015da:	02c37363          	bgeu	t1,a2,80001600 <memset+0x2a>
800015de:	00f77793          	andi	a5,a4,15
800015e2:	efbd                	bnez	a5,80001660 <memset+0x8a>
800015e4:	e5ad                	bnez	a1,8000164e <memset+0x78>
800015e6:	ff067693          	andi	a3,a2,-16
800015ea:	8a3d                	andi	a2,a2,15
800015ec:	96ba                	add	a3,a3,a4
800015ee:	c30c                	sw	a1,0(a4)
800015f0:	c34c                	sw	a1,4(a4)
800015f2:	c70c                	sw	a1,8(a4)
800015f4:	c74c                	sw	a1,12(a4)
800015f6:	0741                	addi	a4,a4,16
800015f8:	fed76be3          	bltu	a4,a3,800015ee <memset+0x18>
800015fc:	e211                	bnez	a2,80001600 <memset+0x2a>
800015fe:	8082                	ret
80001600:	40c306b3          	sub	a3,t1,a2
80001604:	068a                	slli	a3,a3,0x2
80001606:	00000297          	auipc	t0,0x0
8000160a:	9696                	add	a3,a3,t0
8000160c:	00a68067          	jr	10(a3) # 100a <__stack_size+0x80a>
80001610:	00b70723          	sb	a1,14(a4) # ffffe00e <_sp+0x6ffee00e>
80001614:	00b706a3          	sb	a1,13(a4)
80001618:	00b70623          	sb	a1,12(a4)
8000161c:	00b705a3          	sb	a1,11(a4)
80001620:	00b70523          	sb	a1,10(a4)
80001624:	00b704a3          	sb	a1,9(a4)
80001628:	00b70423          	sb	a1,8(a4)
8000162c:	00b703a3          	sb	a1,7(a4)
80001630:	00b70323          	sb	a1,6(a4)
80001634:	00b702a3          	sb	a1,5(a4)
80001638:	00b70223          	sb	a1,4(a4)
8000163c:	00b701a3          	sb	a1,3(a4)
80001640:	00b70123          	sb	a1,2(a4)
80001644:	00b700a3          	sb	a1,1(a4)
80001648:	00b70023          	sb	a1,0(a4)
8000164c:	8082                	ret
8000164e:	0ff5f593          	zext.b	a1,a1
80001652:	00859693          	slli	a3,a1,0x8
80001656:	8dd5                	or	a1,a1,a3
80001658:	01059693          	slli	a3,a1,0x10
8000165c:	8dd5                	or	a1,a1,a3
8000165e:	b761                	j	800015e6 <memset+0x10>
80001660:	00279693          	slli	a3,a5,0x2
80001664:	00000297          	auipc	t0,0x0
80001668:	9696                	add	a3,a3,t0
8000166a:	8286                	mv	t0,ra
8000166c:	fa8680e7          	jalr	-88(a3)
80001670:	8096                	mv	ra,t0
80001672:	17c1                	addi	a5,a5,-16
80001674:	8f1d                	sub	a4,a4,a5
80001676:	963e                	add	a2,a2,a5
80001678:	f8c374e3          	bgeu	t1,a2,80001600 <memset+0x2a>
8000167c:	b7a5                	j	800015e4 <memset+0xe>

8000167e <_free_r>:
_free_r():
8000167e:	c1c5                	beqz	a1,8000171e <_free_r+0xa0>
80001680:	ffc5a783          	lw	a5,-4(a1)
80001684:	1101                	addi	sp,sp,-32
80001686:	cc22                	sw	s0,24(sp)
80001688:	ce06                	sw	ra,28(sp)
8000168a:	ffc58413          	addi	s0,a1,-4
8000168e:	0007d363          	bgez	a5,80001694 <_free_r+0x16>
80001692:	943e                	add	s0,s0,a5
80001694:	c62a                	sw	a0,12(sp)
80001696:	1b9000ef          	jal	ra,8000204e <__malloc_lock>
8000169a:	81c18713          	addi	a4,gp,-2020 # 9000007c <__malloc_free_list>
8000169e:	431c                	lw	a5,0(a4)
800016a0:	4532                	lw	a0,12(sp)
800016a2:	eb89                	bnez	a5,800016b4 <_free_r+0x36>
800016a4:	00042223          	sw	zero,4(s0)
800016a8:	c300                	sw	s0,0(a4)
800016aa:	4462                	lw	s0,24(sp)
800016ac:	40f2                	lw	ra,28(sp)
800016ae:	6105                	addi	sp,sp,32
800016b0:	1a10006f          	j	80002050 <__malloc_unlock>
800016b4:	00f47d63          	bgeu	s0,a5,800016ce <_free_r+0x50>
800016b8:	4010                	lw	a2,0(s0)
800016ba:	00c406b3          	add	a3,s0,a2
800016be:	00d79663          	bne	a5,a3,800016ca <_free_r+0x4c>
800016c2:	4394                	lw	a3,0(a5)
800016c4:	43dc                	lw	a5,4(a5)
800016c6:	96b2                	add	a3,a3,a2
800016c8:	c014                	sw	a3,0(s0)
800016ca:	c05c                	sw	a5,4(s0)
800016cc:	bff1                	j	800016a8 <_free_r+0x2a>
800016ce:	873e                	mv	a4,a5
800016d0:	43dc                	lw	a5,4(a5)
800016d2:	c399                	beqz	a5,800016d8 <_free_r+0x5a>
800016d4:	fef47de3          	bgeu	s0,a5,800016ce <_free_r+0x50>
800016d8:	4314                	lw	a3,0(a4)
800016da:	00d70633          	add	a2,a4,a3
800016de:	00861f63          	bne	a2,s0,800016fc <_free_r+0x7e>
800016e2:	4010                	lw	a2,0(s0)
800016e4:	96b2                	add	a3,a3,a2
800016e6:	c314                	sw	a3,0(a4)
800016e8:	00d70633          	add	a2,a4,a3
800016ec:	fac79fe3          	bne	a5,a2,800016aa <_free_r+0x2c>
800016f0:	4390                	lw	a2,0(a5)
800016f2:	43dc                	lw	a5,4(a5)
800016f4:	96b2                	add	a3,a3,a2
800016f6:	c314                	sw	a3,0(a4)
800016f8:	c35c                	sw	a5,4(a4)
800016fa:	bf45                	j	800016aa <_free_r+0x2c>
800016fc:	00c47563          	bgeu	s0,a2,80001706 <_free_r+0x88>
80001700:	47b1                	li	a5,12
80001702:	c11c                	sw	a5,0(a0)
80001704:	b75d                	j	800016aa <_free_r+0x2c>
80001706:	4010                	lw	a2,0(s0)
80001708:	00c406b3          	add	a3,s0,a2
8000170c:	00d79663          	bne	a5,a3,80001718 <_free_r+0x9a>
80001710:	4394                	lw	a3,0(a5)
80001712:	43dc                	lw	a5,4(a5)
80001714:	96b2                	add	a3,a3,a2
80001716:	c014                	sw	a3,0(s0)
80001718:	c05c                	sw	a5,4(s0)
8000171a:	c340                	sw	s0,4(a4)
8000171c:	b779                	j	800016aa <_free_r+0x2c>
8000171e:	8082                	ret

80001720 <_malloc_r>:
_malloc_r():
80001720:	1101                	addi	sp,sp,-32
80001722:	ca26                	sw	s1,20(sp)
80001724:	00358493          	addi	s1,a1,3
80001728:	98f1                	andi	s1,s1,-4
8000172a:	c84a                	sw	s2,16(sp)
8000172c:	ce06                	sw	ra,28(sp)
8000172e:	cc22                	sw	s0,24(sp)
80001730:	c64e                	sw	s3,12(sp)
80001732:	04a1                	addi	s1,s1,8
80001734:	47b1                	li	a5,12
80001736:	892a                	mv	s2,a0
80001738:	04f4f263          	bgeu	s1,a5,8000177c <_malloc_r+0x5c>
8000173c:	44b1                	li	s1,12
8000173e:	04b4e163          	bltu	s1,a1,80001780 <_malloc_r+0x60>
80001742:	854a                	mv	a0,s2
80001744:	10b000ef          	jal	ra,8000204e <__malloc_lock>
80001748:	81c18693          	addi	a3,gp,-2020 # 9000007c <__malloc_free_list>
8000174c:	4298                	lw	a4,0(a3)
8000174e:	843a                	mv	s0,a4
80001750:	e039                	bnez	s0,80001796 <_malloc_r+0x76>
80001752:	82018413          	addi	s0,gp,-2016 # 90000080 <__malloc_sbrk_start>
80001756:	401c                	lw	a5,0(s0)
80001758:	e789                	bnez	a5,80001762 <_malloc_r+0x42>
8000175a:	4581                	li	a1,0
8000175c:	854a                	mv	a0,s2
8000175e:	2f11                	jal	80001e72 <_sbrk_r>
80001760:	c008                	sw	a0,0(s0)
80001762:	85a6                	mv	a1,s1
80001764:	854a                	mv	a0,s2
80001766:	2731                	jal	80001e72 <_sbrk_r>
80001768:	59fd                	li	s3,-1
8000176a:	07351a63          	bne	a0,s3,800017de <_malloc_r+0xbe>
8000176e:	47b1                	li	a5,12
80001770:	00f92023          	sw	a5,0(s2)
80001774:	854a                	mv	a0,s2
80001776:	0db000ef          	jal	ra,80002050 <__malloc_unlock>
8000177a:	a031                	j	80001786 <_malloc_r+0x66>
8000177c:	fc04d1e3          	bgez	s1,8000173e <_malloc_r+0x1e>
80001780:	47b1                	li	a5,12
80001782:	00f92023          	sw	a5,0(s2)
80001786:	4501                	li	a0,0
80001788:	40f2                	lw	ra,28(sp)
8000178a:	4462                	lw	s0,24(sp)
8000178c:	44d2                	lw	s1,20(sp)
8000178e:	4942                	lw	s2,16(sp)
80001790:	49b2                	lw	s3,12(sp)
80001792:	6105                	addi	sp,sp,32
80001794:	8082                	ret
80001796:	401c                	lw	a5,0(s0)
80001798:	8f85                	sub	a5,a5,s1
8000179a:	0207cf63          	bltz	a5,800017d8 <_malloc_r+0xb8>
8000179e:	462d                	li	a2,11
800017a0:	00f67663          	bgeu	a2,a5,800017ac <_malloc_r+0x8c>
800017a4:	c01c                	sw	a5,0(s0)
800017a6:	943e                	add	s0,s0,a5
800017a8:	c004                	sw	s1,0(s0)
800017aa:	a029                	j	800017b4 <_malloc_r+0x94>
800017ac:	405c                	lw	a5,4(s0)
800017ae:	02871363          	bne	a4,s0,800017d4 <_malloc_r+0xb4>
800017b2:	c29c                	sw	a5,0(a3)
800017b4:	854a                	mv	a0,s2
800017b6:	09b000ef          	jal	ra,80002050 <__malloc_unlock>
800017ba:	00b40513          	addi	a0,s0,11
800017be:	00440793          	addi	a5,s0,4
800017c2:	9961                	andi	a0,a0,-8
800017c4:	40f50733          	sub	a4,a0,a5
800017c8:	fcf500e3          	beq	a0,a5,80001788 <_malloc_r+0x68>
800017cc:	943a                	add	s0,s0,a4
800017ce:	8f89                	sub	a5,a5,a0
800017d0:	c01c                	sw	a5,0(s0)
800017d2:	bf5d                	j	80001788 <_malloc_r+0x68>
800017d4:	c35c                	sw	a5,4(a4)
800017d6:	bff9                	j	800017b4 <_malloc_r+0x94>
800017d8:	8722                	mv	a4,s0
800017da:	4040                	lw	s0,4(s0)
800017dc:	bf95                	j	80001750 <_malloc_r+0x30>
800017de:	00350413          	addi	s0,a0,3
800017e2:	9871                	andi	s0,s0,-4
800017e4:	fc8502e3          	beq	a0,s0,800017a8 <_malloc_r+0x88>
800017e8:	40a405b3          	sub	a1,s0,a0
800017ec:	854a                	mv	a0,s2
800017ee:	2551                	jal	80001e72 <_sbrk_r>
800017f0:	fb351ce3          	bne	a0,s3,800017a8 <_malloc_r+0x88>
800017f4:	bfad                	j	8000176e <_malloc_r+0x4e>

800017f6 <__sfputc_r>:
__sfputc_r():
800017f6:	461c                	lw	a5,8(a2)
800017f8:	17fd                	addi	a5,a5,-1
800017fa:	c61c                	sw	a5,8(a2)
800017fc:	0007da63          	bgez	a5,80001810 <__sfputc_r+0x1a>
80001800:	4e18                	lw	a4,24(a2)
80001802:	00e7c563          	blt	a5,a4,8000180c <__sfputc_r+0x16>
80001806:	47a9                	li	a5,10
80001808:	00f59463          	bne	a1,a5,80001810 <__sfputc_r+0x1a>
8000180c:	e6aff06f          	j	80000e76 <__swbuf_r>
80001810:	421c                	lw	a5,0(a2)
80001812:	852e                	mv	a0,a1
80001814:	00178713          	addi	a4,a5,1
80001818:	c218                	sw	a4,0(a2)
8000181a:	00b78023          	sb	a1,0(a5)
8000181e:	8082                	ret

80001820 <__sfputs_r>:
__sfputs_r():
80001820:	1101                	addi	sp,sp,-32
80001822:	cc22                	sw	s0,24(sp)
80001824:	ca26                	sw	s1,20(sp)
80001826:	c84a                	sw	s2,16(sp)
80001828:	c64e                	sw	s3,12(sp)
8000182a:	c452                	sw	s4,8(sp)
8000182c:	ce06                	sw	ra,28(sp)
8000182e:	892a                	mv	s2,a0
80001830:	89ae                	mv	s3,a1
80001832:	8432                	mv	s0,a2
80001834:	00d604b3          	add	s1,a2,a3
80001838:	5a7d                	li	s4,-1
8000183a:	00941463          	bne	s0,s1,80001842 <__sfputs_r+0x22>
8000183e:	4501                	li	a0,0
80001840:	a809                	j	80001852 <__sfputs_r+0x32>
80001842:	00044583          	lbu	a1,0(s0)
80001846:	864e                	mv	a2,s3
80001848:	854a                	mv	a0,s2
8000184a:	3775                	jal	800017f6 <__sfputc_r>
8000184c:	0405                	addi	s0,s0,1
8000184e:	ff4516e3          	bne	a0,s4,8000183a <__sfputs_r+0x1a>
80001852:	40f2                	lw	ra,28(sp)
80001854:	4462                	lw	s0,24(sp)
80001856:	44d2                	lw	s1,20(sp)
80001858:	4942                	lw	s2,16(sp)
8000185a:	49b2                	lw	s3,12(sp)
8000185c:	4a22                	lw	s4,8(sp)
8000185e:	6105                	addi	sp,sp,32
80001860:	8082                	ret

80001862 <_vfiprintf_r>:
_vfiprintf_r():
80001862:	7135                	addi	sp,sp,-160
80001864:	cd22                	sw	s0,152(sp)
80001866:	cb26                	sw	s1,148(sp)
80001868:	c94a                	sw	s2,144(sp)
8000186a:	c74e                	sw	s3,140(sp)
8000186c:	cf06                	sw	ra,156(sp)
8000186e:	c552                	sw	s4,136(sp)
80001870:	c356                	sw	s5,132(sp)
80001872:	c15a                	sw	s6,128(sp)
80001874:	dede                	sw	s7,124(sp)
80001876:	dce2                	sw	s8,120(sp)
80001878:	dae6                	sw	s9,116(sp)
8000187a:	89aa                	mv	s3,a0
8000187c:	84ae                	mv	s1,a1
8000187e:	8932                	mv	s2,a2
80001880:	8436                	mv	s0,a3
80001882:	c501                	beqz	a0,8000188a <_vfiprintf_r+0x28>
80001884:	4d1c                	lw	a5,24(a0)
80001886:	e391                	bnez	a5,8000188a <_vfiprintf_r+0x28>
80001888:	34c1                	jal	80001348 <__sinit>
8000188a:	00001797          	auipc	a5,0x1
8000188e:	b7e78793          	addi	a5,a5,-1154 # 80002408 <__sf_fake_stdin>
80001892:	0cf49b63          	bne	s1,a5,80001968 <_vfiprintf_r+0x106>
80001896:	0049a483          	lw	s1,4(s3)
8000189a:	00c4d783          	lhu	a5,12(s1)
8000189e:	8ba1                	andi	a5,a5,8
800018a0:	c7f5                	beqz	a5,8000198c <_vfiprintf_r+0x12a>
800018a2:	489c                	lw	a5,16(s1)
800018a4:	c7e5                	beqz	a5,8000198c <_vfiprintf_r+0x12a>
800018a6:	02000793          	li	a5,32
800018aa:	02f104a3          	sb	a5,41(sp)
800018ae:	03000793          	li	a5,48
800018b2:	d202                	sw	zero,36(sp)
800018b4:	02f10523          	sb	a5,42(sp)
800018b8:	c622                	sw	s0,12(sp)
800018ba:	02500b93          	li	s7,37
800018be:	00001a97          	auipc	s5,0x1
800018c2:	b8aa8a93          	addi	s5,s5,-1142 # 80002448 <__sf_fake_stdout+0x20>
800018c6:	4c05                	li	s8,1
800018c8:	4b29                	li	s6,10
800018ca:	844a                	mv	s0,s2
800018cc:	00044783          	lbu	a5,0(s0)
800018d0:	c399                	beqz	a5,800018d6 <_vfiprintf_r+0x74>
800018d2:	0f779063          	bne	a5,s7,800019b2 <_vfiprintf_r+0x150>
800018d6:	41240cb3          	sub	s9,s0,s2
800018da:	01240d63          	beq	s0,s2,800018f4 <_vfiprintf_r+0x92>
800018de:	86e6                	mv	a3,s9
800018e0:	864a                	mv	a2,s2
800018e2:	85a6                	mv	a1,s1
800018e4:	854e                	mv	a0,s3
800018e6:	3f2d                	jal	80001820 <__sfputs_r>
800018e8:	57fd                	li	a5,-1
800018ea:	1ef50463          	beq	a0,a5,80001ad2 <_vfiprintf_r+0x270>
800018ee:	5792                	lw	a5,36(sp)
800018f0:	97e6                	add	a5,a5,s9
800018f2:	d23e                	sw	a5,36(sp)
800018f4:	00044783          	lbu	a5,0(s0)
800018f8:	1c078d63          	beqz	a5,80001ad2 <_vfiprintf_r+0x270>
800018fc:	57fd                	li	a5,-1
800018fe:	00140913          	addi	s2,s0,1
80001902:	c802                	sw	zero,16(sp)
80001904:	ce02                	sw	zero,28(sp)
80001906:	ca3e                	sw	a5,20(sp)
80001908:	cc02                	sw	zero,24(sp)
8000190a:	040109a3          	sb	zero,83(sp)
8000190e:	d482                	sw	zero,104(sp)
80001910:	00094583          	lbu	a1,0(s2)
80001914:	4615                	li	a2,5
80001916:	8556                	mv	a0,s5
80001918:	2f31                	jal	80002034 <memchr>
8000191a:	47c2                	lw	a5,16(sp)
8000191c:	00190413          	addi	s0,s2,1
80001920:	e959                	bnez	a0,800019b6 <_vfiprintf_r+0x154>
80001922:	0107f713          	andi	a4,a5,16
80001926:	c709                	beqz	a4,80001930 <_vfiprintf_r+0xce>
80001928:	02000713          	li	a4,32
8000192c:	04e109a3          	sb	a4,83(sp)
80001930:	0087f713          	andi	a4,a5,8
80001934:	c709                	beqz	a4,8000193e <_vfiprintf_r+0xdc>
80001936:	02b00713          	li	a4,43
8000193a:	04e109a3          	sb	a4,83(sp)
8000193e:	00094683          	lbu	a3,0(s2)
80001942:	02a00713          	li	a4,42
80001946:	08e68063          	beq	a3,a4,800019c6 <_vfiprintf_r+0x164>
8000194a:	47f2                	lw	a5,28(sp)
8000194c:	844a                	mv	s0,s2
8000194e:	4681                	li	a3,0
80001950:	4625                	li	a2,9
80001952:	00044703          	lbu	a4,0(s0)
80001956:	00140593          	addi	a1,s0,1
8000195a:	fd070713          	addi	a4,a4,-48
8000195e:	0ae67963          	bgeu	a2,a4,80001a10 <_vfiprintf_r+0x1ae>
80001962:	cab5                	beqz	a3,800019d6 <_vfiprintf_r+0x174>
80001964:	ce3e                	sw	a5,28(sp)
80001966:	a885                	j	800019d6 <_vfiprintf_r+0x174>
80001968:	00001797          	auipc	a5,0x1
8000196c:	ac078793          	addi	a5,a5,-1344 # 80002428 <__sf_fake_stdout>
80001970:	00f49563          	bne	s1,a5,8000197a <_vfiprintf_r+0x118>
80001974:	0089a483          	lw	s1,8(s3)
80001978:	b70d                	j	8000189a <_vfiprintf_r+0x38>
8000197a:	00001797          	auipc	a5,0x1
8000197e:	a6e78793          	addi	a5,a5,-1426 # 800023e8 <__sf_fake_stderr>
80001982:	f0f49ce3          	bne	s1,a5,8000189a <_vfiprintf_r+0x38>
80001986:	00c9a483          	lw	s1,12(s3)
8000198a:	bf01                	j	8000189a <_vfiprintf_r+0x38>
8000198c:	85a6                	mv	a1,s1
8000198e:	854e                	mv	a0,s3
80001990:	da6ff0ef          	jal	ra,80000f36 <__swsetup_r>
80001994:	d909                	beqz	a0,800018a6 <_vfiprintf_r+0x44>
80001996:	557d                	li	a0,-1
80001998:	40fa                	lw	ra,156(sp)
8000199a:	446a                	lw	s0,152(sp)
8000199c:	44da                	lw	s1,148(sp)
8000199e:	494a                	lw	s2,144(sp)
800019a0:	49ba                	lw	s3,140(sp)
800019a2:	4a2a                	lw	s4,136(sp)
800019a4:	4a9a                	lw	s5,132(sp)
800019a6:	4b0a                	lw	s6,128(sp)
800019a8:	5bf6                	lw	s7,124(sp)
800019aa:	5c66                	lw	s8,120(sp)
800019ac:	5cd6                	lw	s9,116(sp)
800019ae:	610d                	addi	sp,sp,160
800019b0:	8082                	ret
800019b2:	0405                	addi	s0,s0,1
800019b4:	bf21                	j	800018cc <_vfiprintf_r+0x6a>
800019b6:	41550533          	sub	a0,a0,s5
800019ba:	00ac1533          	sll	a0,s8,a0
800019be:	8fc9                	or	a5,a5,a0
800019c0:	c83e                	sw	a5,16(sp)
800019c2:	8922                	mv	s2,s0
800019c4:	b7b1                	j	80001910 <_vfiprintf_r+0xae>
800019c6:	4732                	lw	a4,12(sp)
800019c8:	00470693          	addi	a3,a4,4
800019cc:	4318                	lw	a4,0(a4)
800019ce:	c636                	sw	a3,12(sp)
800019d0:	02074963          	bltz	a4,80001a02 <_vfiprintf_r+0x1a0>
800019d4:	ce3a                	sw	a4,28(sp)
800019d6:	00044703          	lbu	a4,0(s0)
800019da:	02e00793          	li	a5,46
800019de:	04f71f63          	bne	a4,a5,80001a3c <_vfiprintf_r+0x1da>
800019e2:	00144703          	lbu	a4,1(s0)
800019e6:	02a00793          	li	a5,42
800019ea:	02f71b63          	bne	a4,a5,80001a20 <_vfiprintf_r+0x1be>
800019ee:	47b2                	lw	a5,12(sp)
800019f0:	0409                	addi	s0,s0,2
800019f2:	00478713          	addi	a4,a5,4
800019f6:	439c                	lw	a5,0(a5)
800019f8:	c63a                	sw	a4,12(sp)
800019fa:	0207c163          	bltz	a5,80001a1c <_vfiprintf_r+0x1ba>
800019fe:	ca3e                	sw	a5,20(sp)
80001a00:	a835                	j	80001a3c <_vfiprintf_r+0x1da>
80001a02:	40e00733          	neg	a4,a4
80001a06:	0027e793          	ori	a5,a5,2
80001a0a:	ce3a                	sw	a4,28(sp)
80001a0c:	c83e                	sw	a5,16(sp)
80001a0e:	b7e1                	j	800019d6 <_vfiprintf_r+0x174>
80001a10:	036787b3          	mul	a5,a5,s6
80001a14:	842e                	mv	s0,a1
80001a16:	4685                	li	a3,1
80001a18:	97ba                	add	a5,a5,a4
80001a1a:	bf25                	j	80001952 <_vfiprintf_r+0xf0>
80001a1c:	57fd                	li	a5,-1
80001a1e:	b7c5                	j	800019fe <_vfiprintf_r+0x19c>
80001a20:	0405                	addi	s0,s0,1
80001a22:	ca02                	sw	zero,20(sp)
80001a24:	4681                	li	a3,0
80001a26:	4781                	li	a5,0
80001a28:	4625                	li	a2,9
80001a2a:	00044703          	lbu	a4,0(s0)
80001a2e:	00140593          	addi	a1,s0,1
80001a32:	fd070713          	addi	a4,a4,-48
80001a36:	06e67463          	bgeu	a2,a4,80001a9e <_vfiprintf_r+0x23c>
80001a3a:	f2f1                	bnez	a3,800019fe <_vfiprintf_r+0x19c>
80001a3c:	00044583          	lbu	a1,0(s0)
80001a40:	460d                	li	a2,3
80001a42:	00001517          	auipc	a0,0x1
80001a46:	a0e50513          	addi	a0,a0,-1522 # 80002450 <__sf_fake_stdout+0x28>
80001a4a:	23ed                	jal	80002034 <memchr>
80001a4c:	cd11                	beqz	a0,80001a68 <_vfiprintf_r+0x206>
80001a4e:	00001797          	auipc	a5,0x1
80001a52:	a0278793          	addi	a5,a5,-1534 # 80002450 <__sf_fake_stdout+0x28>
80001a56:	8d1d                	sub	a0,a0,a5
80001a58:	04000793          	li	a5,64
80001a5c:	00a797b3          	sll	a5,a5,a0
80001a60:	4542                	lw	a0,16(sp)
80001a62:	0405                	addi	s0,s0,1
80001a64:	8d5d                	or	a0,a0,a5
80001a66:	c82a                	sw	a0,16(sp)
80001a68:	00044583          	lbu	a1,0(s0)
80001a6c:	4619                	li	a2,6
80001a6e:	00001517          	auipc	a0,0x1
80001a72:	9e650513          	addi	a0,a0,-1562 # 80002454 <__sf_fake_stdout+0x2c>
80001a76:	00140913          	addi	s2,s0,1
80001a7a:	02b10423          	sb	a1,40(sp)
80001a7e:	2b5d                	jal	80002034 <memchr>
80001a80:	c12d                	beqz	a0,80001ae2 <_vfiprintf_r+0x280>
80001a82:	00000793          	li	a5,0
80001a86:	e795                	bnez	a5,80001ab2 <_vfiprintf_r+0x250>
80001a88:	4742                	lw	a4,16(sp)
80001a8a:	47b2                	lw	a5,12(sp)
80001a8c:	10077713          	andi	a4,a4,256
80001a90:	cf09                	beqz	a4,80001aaa <_vfiprintf_r+0x248>
80001a92:	0791                	addi	a5,a5,4
80001a94:	c63e                	sw	a5,12(sp)
80001a96:	5792                	lw	a5,36(sp)
80001a98:	97d2                	add	a5,a5,s4
80001a9a:	d23e                	sw	a5,36(sp)
80001a9c:	b53d                	j	800018ca <_vfiprintf_r+0x68>
80001a9e:	036787b3          	mul	a5,a5,s6
80001aa2:	842e                	mv	s0,a1
80001aa4:	4685                	li	a3,1
80001aa6:	97ba                	add	a5,a5,a4
80001aa8:	b749                	j	80001a2a <_vfiprintf_r+0x1c8>
80001aaa:	079d                	addi	a5,a5,7
80001aac:	9be1                	andi	a5,a5,-8
80001aae:	07a1                	addi	a5,a5,8
80001ab0:	b7d5                	j	80001a94 <_vfiprintf_r+0x232>
80001ab2:	0078                	addi	a4,sp,12
80001ab4:	00000697          	auipc	a3,0x0
80001ab8:	d6c68693          	addi	a3,a3,-660 # 80001820 <__sfputs_r>
80001abc:	8626                	mv	a2,s1
80001abe:	080c                	addi	a1,sp,16
80001ac0:	854e                	mv	a0,s3
80001ac2:	00000097          	auipc	ra,0x0
80001ac6:	000000e7          	jalr	zero # 0 <__stack_size-0x800>
80001aca:	57fd                	li	a5,-1
80001acc:	8a2a                	mv	s4,a0
80001ace:	fcf514e3          	bne	a0,a5,80001a96 <_vfiprintf_r+0x234>
80001ad2:	00c4d783          	lhu	a5,12(s1)
80001ad6:	0407f793          	andi	a5,a5,64
80001ada:	ea079ee3          	bnez	a5,80001996 <_vfiprintf_r+0x134>
80001ade:	5512                	lw	a0,36(sp)
80001ae0:	bd65                	j	80001998 <_vfiprintf_r+0x136>
80001ae2:	0078                	addi	a4,sp,12
80001ae4:	00000697          	auipc	a3,0x0
80001ae8:	d3c68693          	addi	a3,a3,-708 # 80001820 <__sfputs_r>
80001aec:	8626                	mv	a2,s1
80001aee:	080c                	addi	a1,sp,16
80001af0:	854e                	mv	a0,s3
80001af2:	2a01                	jal	80001c02 <_printf_i>
80001af4:	bfd9                	j	80001aca <_vfiprintf_r+0x268>

80001af6 <_printf_common>:
_printf_common():
80001af6:	7179                	addi	sp,sp,-48
80001af8:	cc52                	sw	s4,24(sp)
80001afa:	499c                	lw	a5,16(a1)
80001afc:	8a3a                	mv	s4,a4
80001afe:	4598                	lw	a4,8(a1)
80001b00:	d422                	sw	s0,40(sp)
80001b02:	d226                	sw	s1,36(sp)
80001b04:	ce4e                	sw	s3,28(sp)
80001b06:	ca56                	sw	s5,20(sp)
80001b08:	d606                	sw	ra,44(sp)
80001b0a:	d04a                	sw	s2,32(sp)
80001b0c:	c85a                	sw	s6,16(sp)
80001b0e:	c65e                	sw	s7,12(sp)
80001b10:	89aa                	mv	s3,a0
80001b12:	842e                	mv	s0,a1
80001b14:	84b2                	mv	s1,a2
80001b16:	8ab6                	mv	s5,a3
80001b18:	00e7d363          	bge	a5,a4,80001b1e <_printf_common+0x28>
80001b1c:	87ba                	mv	a5,a4
80001b1e:	c09c                	sw	a5,0(s1)
80001b20:	04344703          	lbu	a4,67(s0)
80001b24:	c319                	beqz	a4,80001b2a <_printf_common+0x34>
80001b26:	0785                	addi	a5,a5,1
80001b28:	c09c                	sw	a5,0(s1)
80001b2a:	401c                	lw	a5,0(s0)
80001b2c:	0207f793          	andi	a5,a5,32
80001b30:	c781                	beqz	a5,80001b38 <_printf_common+0x42>
80001b32:	409c                	lw	a5,0(s1)
80001b34:	0789                	addi	a5,a5,2
80001b36:	c09c                	sw	a5,0(s1)
80001b38:	00042903          	lw	s2,0(s0)
80001b3c:	00697913          	andi	s2,s2,6
80001b40:	00091a63          	bnez	s2,80001b54 <_printf_common+0x5e>
80001b44:	01940b13          	addi	s6,s0,25
80001b48:	5bfd                	li	s7,-1
80001b4a:	445c                	lw	a5,12(s0)
80001b4c:	4098                	lw	a4,0(s1)
80001b4e:	8f99                	sub	a5,a5,a4
80001b50:	04f94c63          	blt	s2,a5,80001ba8 <_printf_common+0xb2>
80001b54:	04344783          	lbu	a5,67(s0)
80001b58:	00f036b3          	snez	a3,a5
80001b5c:	401c                	lw	a5,0(s0)
80001b5e:	0207f793          	andi	a5,a5,32
80001b62:	eba5                	bnez	a5,80001bd2 <_printf_common+0xdc>
80001b64:	04340613          	addi	a2,s0,67
80001b68:	85d6                	mv	a1,s5
80001b6a:	854e                	mv	a0,s3
80001b6c:	9a02                	jalr	s4
80001b6e:	57fd                	li	a5,-1
80001b70:	04f50363          	beq	a0,a5,80001bb6 <_printf_common+0xc0>
80001b74:	401c                	lw	a5,0(s0)
80001b76:	4611                	li	a2,4
80001b78:	4098                	lw	a4,0(s1)
80001b7a:	8b99                	andi	a5,a5,6
80001b7c:	4454                	lw	a3,12(s0)
80001b7e:	4481                	li	s1,0
80001b80:	00c79763          	bne	a5,a2,80001b8e <_printf_common+0x98>
80001b84:	40e684b3          	sub	s1,a3,a4
80001b88:	0004d363          	bgez	s1,80001b8e <_printf_common+0x98>
80001b8c:	4481                	li	s1,0
80001b8e:	441c                	lw	a5,8(s0)
80001b90:	4818                	lw	a4,16(s0)
80001b92:	00f75463          	bge	a4,a5,80001b9a <_printf_common+0xa4>
80001b96:	8f99                	sub	a5,a5,a4
80001b98:	94be                	add	s1,s1,a5
80001b9a:	4901                	li	s2,0
80001b9c:	0469                	addi	s0,s0,26
80001b9e:	5b7d                	li	s6,-1
80001ba0:	05249863          	bne	s1,s2,80001bf0 <_printf_common+0xfa>
80001ba4:	4501                	li	a0,0
80001ba6:	a809                	j	80001bb8 <_printf_common+0xc2>
80001ba8:	4685                	li	a3,1
80001baa:	865a                	mv	a2,s6
80001bac:	85d6                	mv	a1,s5
80001bae:	854e                	mv	a0,s3
80001bb0:	9a02                	jalr	s4
80001bb2:	01751e63          	bne	a0,s7,80001bce <_printf_common+0xd8>
80001bb6:	557d                	li	a0,-1
80001bb8:	50b2                	lw	ra,44(sp)
80001bba:	5422                	lw	s0,40(sp)
80001bbc:	5492                	lw	s1,36(sp)
80001bbe:	5902                	lw	s2,32(sp)
80001bc0:	49f2                	lw	s3,28(sp)
80001bc2:	4a62                	lw	s4,24(sp)
80001bc4:	4ad2                	lw	s5,20(sp)
80001bc6:	4b42                	lw	s6,16(sp)
80001bc8:	4bb2                	lw	s7,12(sp)
80001bca:	6145                	addi	sp,sp,48
80001bcc:	8082                	ret
80001bce:	0905                	addi	s2,s2,1
80001bd0:	bfad                	j	80001b4a <_printf_common+0x54>
80001bd2:	00d40733          	add	a4,s0,a3
80001bd6:	03000613          	li	a2,48
80001bda:	04c701a3          	sb	a2,67(a4)
80001bde:	04544703          	lbu	a4,69(s0)
80001be2:	00168793          	addi	a5,a3,1
80001be6:	97a2                	add	a5,a5,s0
80001be8:	0689                	addi	a3,a3,2
80001bea:	04e781a3          	sb	a4,67(a5)
80001bee:	bf9d                	j	80001b64 <_printf_common+0x6e>
80001bf0:	4685                	li	a3,1
80001bf2:	8622                	mv	a2,s0
80001bf4:	85d6                	mv	a1,s5
80001bf6:	854e                	mv	a0,s3
80001bf8:	9a02                	jalr	s4
80001bfa:	fb650ee3          	beq	a0,s6,80001bb6 <_printf_common+0xc0>
80001bfe:	0905                	addi	s2,s2,1
80001c00:	b745                	j	80001ba0 <_printf_common+0xaa>

80001c02 <_printf_i>:
_printf_i():
80001c02:	7179                	addi	sp,sp,-48
80001c04:	d422                	sw	s0,40(sp)
80001c06:	d226                	sw	s1,36(sp)
80001c08:	d04a                	sw	s2,32(sp)
80001c0a:	ce4e                	sw	s3,28(sp)
80001c0c:	d606                	sw	ra,44(sp)
80001c0e:	cc52                	sw	s4,24(sp)
80001c10:	ca56                	sw	s5,20(sp)
80001c12:	c85a                	sw	s6,16(sp)
80001c14:	0185c803          	lbu	a6,24(a1)
80001c18:	07800793          	li	a5,120
80001c1c:	84aa                	mv	s1,a0
80001c1e:	842e                	mv	s0,a1
80001c20:	8932                	mv	s2,a2
80001c22:	89b6                	mv	s3,a3
80001c24:	0107ee63          	bltu	a5,a6,80001c40 <_printf_i+0x3e>
80001c28:	06200793          	li	a5,98
80001c2c:	04358693          	addi	a3,a1,67
80001c30:	0107ed63          	bltu	a5,a6,80001c4a <_printf_i+0x48>
80001c34:	1c080563          	beqz	a6,80001dfe <_printf_i+0x1fc>
80001c38:	05800793          	li	a5,88
80001c3c:	12f80a63          	beq	a6,a5,80001d70 <_printf_i+0x16e>
80001c40:	04240a93          	addi	s5,s0,66
80001c44:	05040123          	sb	a6,66(s0)
80001c48:	a815                	j	80001c7c <_printf_i+0x7a>
80001c4a:	f9d80793          	addi	a5,a6,-99
80001c4e:	0ff7f793          	zext.b	a5,a5
80001c52:	4655                	li	a2,21
80001c54:	fef666e3          	bltu	a2,a5,80001c40 <_printf_i+0x3e>
80001c58:	00001617          	auipc	a2,0x1
80001c5c:	82c60613          	addi	a2,a2,-2004 # 80002484 <__sf_fake_stdout+0x5c>
80001c60:	078a                	slli	a5,a5,0x2
80001c62:	97b2                	add	a5,a5,a2
80001c64:	439c                	lw	a5,0(a5)
80001c66:	97b2                	add	a5,a5,a2
80001c68:	8782                	jr	a5
80001c6a:	431c                	lw	a5,0(a4)
80001c6c:	04258a93          	addi	s5,a1,66
80001c70:	00478693          	addi	a3,a5,4
80001c74:	439c                	lw	a5,0(a5)
80001c76:	c314                	sw	a3,0(a4)
80001c78:	04f58123          	sb	a5,66(a1)
80001c7c:	4785                	li	a5,1
80001c7e:	a25d                	j	80001e24 <_printf_i+0x222>
80001c80:	419c                	lw	a5,0(a1)
80001c82:	4308                	lw	a0,0(a4)
80001c84:	0807f613          	andi	a2,a5,128
80001c88:	00450593          	addi	a1,a0,4
80001c8c:	c20d                	beqz	a2,80001cae <_printf_i+0xac>
80001c8e:	411c                	lw	a5,0(a0)
80001c90:	c30c                	sw	a1,0(a4)
80001c92:	0007d863          	bgez	a5,80001ca2 <_printf_i+0xa0>
80001c96:	02d00713          	li	a4,45
80001c9a:	40f007b3          	neg	a5,a5
80001c9e:	04e401a3          	sb	a4,67(s0)
80001ca2:	00000617          	auipc	a2,0x0
80001ca6:	7ba60613          	addi	a2,a2,1978 # 8000245c <__sf_fake_stdout+0x34>
80001caa:	4829                	li	a6,10
80001cac:	a0a1                	j	80001cf4 <_printf_i+0xf2>
80001cae:	0407f613          	andi	a2,a5,64
80001cb2:	411c                	lw	a5,0(a0)
80001cb4:	c30c                	sw	a1,0(a4)
80001cb6:	de71                	beqz	a2,80001c92 <_printf_i+0x90>
80001cb8:	07c2                	slli	a5,a5,0x10
80001cba:	87c1                	srai	a5,a5,0x10
80001cbc:	bfd9                	j	80001c92 <_printf_i+0x90>
80001cbe:	4190                	lw	a2,0(a1)
80001cc0:	431c                	lw	a5,0(a4)
80001cc2:	08067513          	andi	a0,a2,128
80001cc6:	00478593          	addi	a1,a5,4
80001cca:	c501                	beqz	a0,80001cd2 <_printf_i+0xd0>
80001ccc:	c30c                	sw	a1,0(a4)
80001cce:	439c                	lw	a5,0(a5)
80001cd0:	a039                	j	80001cde <_printf_i+0xdc>
80001cd2:	04067613          	andi	a2,a2,64
80001cd6:	c30c                	sw	a1,0(a4)
80001cd8:	da7d                	beqz	a2,80001cce <_printf_i+0xcc>
80001cda:	0007d783          	lhu	a5,0(a5)
80001cde:	06f00713          	li	a4,111
80001ce2:	00000617          	auipc	a2,0x0
80001ce6:	77a60613          	addi	a2,a2,1914 # 8000245c <__sf_fake_stdout+0x34>
80001cea:	0ee80463          	beq	a6,a4,80001dd2 <_printf_i+0x1d0>
80001cee:	4829                	li	a6,10
80001cf0:	040401a3          	sb	zero,67(s0)
80001cf4:	4058                	lw	a4,4(s0)
80001cf6:	c418                	sw	a4,8(s0)
80001cf8:	00074563          	bltz	a4,80001d02 <_printf_i+0x100>
80001cfc:	400c                	lw	a1,0(s0)
80001cfe:	99ed                	andi	a1,a1,-5
80001d00:	c00c                	sw	a1,0(s0)
80001d02:	e399                	bnez	a5,80001d08 <_printf_i+0x106>
80001d04:	8ab6                	mv	s5,a3
80001d06:	cf19                	beqz	a4,80001d24 <_printf_i+0x122>
80001d08:	8ab6                	mv	s5,a3
80001d0a:	0307f733          	remu	a4,a5,a6
80001d0e:	1afd                	addi	s5,s5,-1
80001d10:	9732                	add	a4,a4,a2
80001d12:	00074703          	lbu	a4,0(a4)
80001d16:	00ea8023          	sb	a4,0(s5)
80001d1a:	873e                	mv	a4,a5
80001d1c:	0307d7b3          	divu	a5,a5,a6
80001d20:	ff0775e3          	bgeu	a4,a6,80001d0a <_printf_i+0x108>
80001d24:	47a1                	li	a5,8
80001d26:	00f81e63          	bne	a6,a5,80001d42 <_printf_i+0x140>
80001d2a:	401c                	lw	a5,0(s0)
80001d2c:	8b85                	andi	a5,a5,1
80001d2e:	cb91                	beqz	a5,80001d42 <_printf_i+0x140>
80001d30:	4058                	lw	a4,4(s0)
80001d32:	481c                	lw	a5,16(s0)
80001d34:	00e7c763          	blt	a5,a4,80001d42 <_printf_i+0x140>
80001d38:	03000793          	li	a5,48
80001d3c:	fefa8fa3          	sb	a5,-1(s5)
80001d40:	1afd                	addi	s5,s5,-1
80001d42:	415686b3          	sub	a3,a3,s5
80001d46:	c814                	sw	a3,16(s0)
80001d48:	874e                	mv	a4,s3
80001d4a:	86ca                	mv	a3,s2
80001d4c:	0070                	addi	a2,sp,12
80001d4e:	85a2                	mv	a1,s0
80001d50:	8526                	mv	a0,s1
80001d52:	3355                	jal	80001af6 <_printf_common>
80001d54:	5a7d                	li	s4,-1
80001d56:	0d451b63          	bne	a0,s4,80001e2c <_printf_i+0x22a>
80001d5a:	557d                	li	a0,-1
80001d5c:	50b2                	lw	ra,44(sp)
80001d5e:	5422                	lw	s0,40(sp)
80001d60:	5492                	lw	s1,36(sp)
80001d62:	5902                	lw	s2,32(sp)
80001d64:	49f2                	lw	s3,28(sp)
80001d66:	4a62                	lw	s4,24(sp)
80001d68:	4ad2                	lw	s5,20(sp)
80001d6a:	4b42                	lw	s6,16(sp)
80001d6c:	6145                	addi	sp,sp,48
80001d6e:	8082                	ret
80001d70:	050582a3          	sb	a6,69(a1)
80001d74:	00000617          	auipc	a2,0x0
80001d78:	6e860613          	addi	a2,a2,1768 # 8000245c <__sf_fake_stdout+0x34>
80001d7c:	400c                	lw	a1,0(s0)
80001d7e:	4308                	lw	a0,0(a4)
80001d80:	0805f813          	andi	a6,a1,128
80001d84:	411c                	lw	a5,0(a0)
80001d86:	0511                	addi	a0,a0,4
80001d88:	02080d63          	beqz	a6,80001dc2 <_printf_i+0x1c0>
80001d8c:	c308                	sw	a0,0(a4)
80001d8e:	0015f713          	andi	a4,a1,1
80001d92:	c701                	beqz	a4,80001d9a <_printf_i+0x198>
80001d94:	0205e593          	ori	a1,a1,32
80001d98:	c00c                	sw	a1,0(s0)
80001d9a:	4841                	li	a6,16
80001d9c:	fbb1                	bnez	a5,80001cf0 <_printf_i+0xee>
80001d9e:	4018                	lw	a4,0(s0)
80001da0:	fdf77713          	andi	a4,a4,-33
80001da4:	c018                	sw	a4,0(s0)
80001da6:	b7a9                	j	80001cf0 <_printf_i+0xee>
80001da8:	419c                	lw	a5,0(a1)
80001daa:	0207e793          	ori	a5,a5,32
80001dae:	c19c                	sw	a5,0(a1)
80001db0:	07800793          	li	a5,120
80001db4:	04f402a3          	sb	a5,69(s0)
80001db8:	00000617          	auipc	a2,0x0
80001dbc:	6b860613          	addi	a2,a2,1720 # 80002470 <__sf_fake_stdout+0x48>
80001dc0:	bf75                	j	80001d7c <_printf_i+0x17a>
80001dc2:	0405f813          	andi	a6,a1,64
80001dc6:	c308                	sw	a0,0(a4)
80001dc8:	fc0803e3          	beqz	a6,80001d8e <_printf_i+0x18c>
80001dcc:	07c2                	slli	a5,a5,0x10
80001dce:	83c1                	srli	a5,a5,0x10
80001dd0:	bf7d                	j	80001d8e <_printf_i+0x18c>
80001dd2:	4821                	li	a6,8
80001dd4:	bf31                	j	80001cf0 <_printf_i+0xee>
80001dd6:	4190                	lw	a2,0(a1)
80001dd8:	431c                	lw	a5,0(a4)
80001dda:	49cc                	lw	a1,20(a1)
80001ddc:	08067813          	andi	a6,a2,128
80001de0:	00478513          	addi	a0,a5,4
80001de4:	00080663          	beqz	a6,80001df0 <_printf_i+0x1ee>
80001de8:	c308                	sw	a0,0(a4)
80001dea:	439c                	lw	a5,0(a5)
80001dec:	c38c                	sw	a1,0(a5)
80001dee:	a801                	j	80001dfe <_printf_i+0x1fc>
80001df0:	c308                	sw	a0,0(a4)
80001df2:	04067613          	andi	a2,a2,64
80001df6:	439c                	lw	a5,0(a5)
80001df8:	da75                	beqz	a2,80001dec <_printf_i+0x1ea>
80001dfa:	00b79023          	sh	a1,0(a5)
80001dfe:	00042823          	sw	zero,16(s0)
80001e02:	8ab6                	mv	s5,a3
80001e04:	b791                	j	80001d48 <_printf_i+0x146>
80001e06:	431c                	lw	a5,0(a4)
80001e08:	41d0                	lw	a2,4(a1)
80001e0a:	4581                	li	a1,0
80001e0c:	00478693          	addi	a3,a5,4
80001e10:	c314                	sw	a3,0(a4)
80001e12:	0007aa83          	lw	s5,0(a5)
80001e16:	8556                	mv	a0,s5
80001e18:	2c31                	jal	80002034 <memchr>
80001e1a:	c501                	beqz	a0,80001e22 <_printf_i+0x220>
80001e1c:	41550533          	sub	a0,a0,s5
80001e20:	c048                	sw	a0,4(s0)
80001e22:	405c                	lw	a5,4(s0)
80001e24:	c81c                	sw	a5,16(s0)
80001e26:	040401a3          	sb	zero,67(s0)
80001e2a:	bf39                	j	80001d48 <_printf_i+0x146>
80001e2c:	4814                	lw	a3,16(s0)
80001e2e:	8656                	mv	a2,s5
80001e30:	85ca                	mv	a1,s2
80001e32:	8526                	mv	a0,s1
80001e34:	9982                	jalr	s3
80001e36:	f34502e3          	beq	a0,s4,80001d5a <_printf_i+0x158>
80001e3a:	401c                	lw	a5,0(s0)
80001e3c:	8b89                	andi	a5,a5,2
80001e3e:	e78d                	bnez	a5,80001e68 <_printf_i+0x266>
80001e40:	47b2                	lw	a5,12(sp)
80001e42:	4448                	lw	a0,12(s0)
80001e44:	f0f55ce3          	bge	a0,a5,80001d5c <_printf_i+0x15a>
80001e48:	853e                	mv	a0,a5
80001e4a:	bf09                	j	80001d5c <_printf_i+0x15a>
80001e4c:	4685                	li	a3,1
80001e4e:	8656                	mv	a2,s5
80001e50:	85ca                	mv	a1,s2
80001e52:	8526                	mv	a0,s1
80001e54:	9982                	jalr	s3
80001e56:	f16502e3          	beq	a0,s6,80001d5a <_printf_i+0x158>
80001e5a:	0a05                	addi	s4,s4,1
80001e5c:	445c                	lw	a5,12(s0)
80001e5e:	4732                	lw	a4,12(sp)
80001e60:	8f99                	sub	a5,a5,a4
80001e62:	fefa45e3          	blt	s4,a5,80001e4c <_printf_i+0x24a>
80001e66:	bfe9                	j	80001e40 <_printf_i+0x23e>
80001e68:	4a01                	li	s4,0
80001e6a:	01940a93          	addi	s5,s0,25
80001e6e:	5b7d                	li	s6,-1
80001e70:	b7f5                	j	80001e5c <_printf_i+0x25a>

80001e72 <_sbrk_r>:
_sbrk_r():
80001e72:	1141                	addi	sp,sp,-16
80001e74:	c422                	sw	s0,8(sp)
80001e76:	842a                	mv	s0,a0
80001e78:	852e                	mv	a0,a1
80001e7a:	8001aa23          	sw	zero,-2028(gp) # 90000074 <errno>
80001e7e:	c606                	sw	ra,12(sp)
80001e80:	b5cfe0ef          	jal	ra,800001dc <_sbrk>
80001e84:	57fd                	li	a5,-1
80001e86:	00f51663          	bne	a0,a5,80001e92 <_sbrk_r+0x20>
80001e8a:	8141a783          	lw	a5,-2028(gp) # 90000074 <errno>
80001e8e:	c391                	beqz	a5,80001e92 <_sbrk_r+0x20>
80001e90:	c01c                	sw	a5,0(s0)
80001e92:	40b2                	lw	ra,12(sp)
80001e94:	4422                	lw	s0,8(sp)
80001e96:	0141                	addi	sp,sp,16
80001e98:	8082                	ret

80001e9a <__sread>:
__sread():
80001e9a:	1141                	addi	sp,sp,-16
80001e9c:	c422                	sw	s0,8(sp)
80001e9e:	842e                	mv	s0,a1
80001ea0:	00e59583          	lh	a1,14(a1)
80001ea4:	c606                	sw	ra,12(sp)
80001ea6:	2275                	jal	80002052 <_read_r>
80001ea8:	00054963          	bltz	a0,80001eba <__sread+0x20>
80001eac:	487c                	lw	a5,84(s0)
80001eae:	97aa                	add	a5,a5,a0
80001eb0:	c87c                	sw	a5,84(s0)
80001eb2:	40b2                	lw	ra,12(sp)
80001eb4:	4422                	lw	s0,8(sp)
80001eb6:	0141                	addi	sp,sp,16
80001eb8:	8082                	ret
80001eba:	00c45783          	lhu	a5,12(s0)
80001ebe:	777d                	lui	a4,0xfffff
80001ec0:	177d                	addi	a4,a4,-1
80001ec2:	8ff9                	and	a5,a5,a4
80001ec4:	00f41623          	sh	a5,12(s0)
80001ec8:	b7ed                	j	80001eb2 <__sread+0x18>

80001eca <__swrite>:
__swrite():
80001eca:	00c5d783          	lhu	a5,12(a1)
80001ece:	1101                	addi	sp,sp,-32
80001ed0:	cc22                	sw	s0,24(sp)
80001ed2:	ca26                	sw	s1,20(sp)
80001ed4:	c84a                	sw	s2,16(sp)
80001ed6:	c64e                	sw	s3,12(sp)
80001ed8:	ce06                	sw	ra,28(sp)
80001eda:	1007f793          	andi	a5,a5,256
80001ede:	84aa                	mv	s1,a0
80001ee0:	842e                	mv	s0,a1
80001ee2:	8932                	mv	s2,a2
80001ee4:	89b6                	mv	s3,a3
80001ee6:	c791                	beqz	a5,80001ef2 <__swrite+0x28>
80001ee8:	00e59583          	lh	a1,14(a1)
80001eec:	4689                	li	a3,2
80001eee:	4601                	li	a2,0
80001ef0:	2a21                	jal	80002008 <_lseek_r>
80001ef2:	00c45783          	lhu	a5,12(s0)
80001ef6:	777d                	lui	a4,0xfffff
80001ef8:	177d                	addi	a4,a4,-1
80001efa:	8ff9                	and	a5,a5,a4
80001efc:	00e41583          	lh	a1,14(s0)
80001f00:	00f41623          	sh	a5,12(s0)
80001f04:	4462                	lw	s0,24(sp)
80001f06:	40f2                	lw	ra,28(sp)
80001f08:	86ce                	mv	a3,s3
80001f0a:	864a                	mv	a2,s2
80001f0c:	49b2                	lw	s3,12(sp)
80001f0e:	4942                	lw	s2,16(sp)
80001f10:	8526                	mv	a0,s1
80001f12:	44d2                	lw	s1,20(sp)
80001f14:	6105                	addi	sp,sp,32
80001f16:	a83d                	j	80001f54 <_write_r>

80001f18 <__sseek>:
__sseek():
80001f18:	1141                	addi	sp,sp,-16
80001f1a:	c422                	sw	s0,8(sp)
80001f1c:	842e                	mv	s0,a1
80001f1e:	00e59583          	lh	a1,14(a1)
80001f22:	c606                	sw	ra,12(sp)
80001f24:	20d5                	jal	80002008 <_lseek_r>
80001f26:	57fd                	li	a5,-1
80001f28:	00c45703          	lhu	a4,12(s0)
80001f2c:	00f51b63          	bne	a0,a5,80001f42 <__sseek+0x2a>
80001f30:	77fd                	lui	a5,0xfffff
80001f32:	17fd                	addi	a5,a5,-1
80001f34:	8ff9                	and	a5,a5,a4
80001f36:	00f41623          	sh	a5,12(s0)
80001f3a:	40b2                	lw	ra,12(sp)
80001f3c:	4422                	lw	s0,8(sp)
80001f3e:	0141                	addi	sp,sp,16
80001f40:	8082                	ret
80001f42:	6785                	lui	a5,0x1
80001f44:	8fd9                	or	a5,a5,a4
80001f46:	00f41623          	sh	a5,12(s0)
80001f4a:	c868                	sw	a0,84(s0)
80001f4c:	b7fd                	j	80001f3a <__sseek+0x22>

80001f4e <__sclose>:
__sclose():
80001f4e:	00e59583          	lh	a1,14(a1)
80001f52:	a835                	j	80001f8e <_close_r>

80001f54 <_write_r>:
_write_r():
80001f54:	1141                	addi	sp,sp,-16
80001f56:	c422                	sw	s0,8(sp)
80001f58:	842a                	mv	s0,a0
80001f5a:	852e                	mv	a0,a1
80001f5c:	85b2                	mv	a1,a2
80001f5e:	8636                	mv	a2,a3
80001f60:	8001aa23          	sw	zero,-2028(gp) # 90000074 <errno>
80001f64:	c606                	sw	ra,12(sp)
80001f66:	aa2fe0ef          	jal	ra,80000208 <_write>
80001f6a:	57fd                	li	a5,-1
80001f6c:	00f51663          	bne	a0,a5,80001f78 <_write_r+0x24>
80001f70:	8141a783          	lw	a5,-2028(gp) # 90000074 <errno>
80001f74:	c391                	beqz	a5,80001f78 <_write_r+0x24>
80001f76:	c01c                	sw	a5,0(s0)
80001f78:	40b2                	lw	ra,12(sp)
80001f7a:	4422                	lw	s0,8(sp)
80001f7c:	0141                	addi	sp,sp,16
80001f7e:	8082                	ret

80001f80 <abort>:
abort():
80001f80:	1141                	addi	sp,sp,-16
80001f82:	4519                	li	a0,6
80001f84:	c606                	sw	ra,12(sp)
80001f86:	2aa9                	jal	800020e0 <raise>
80001f88:	4505                	li	a0,1
80001f8a:	9fafe0ef          	jal	ra,80000184 <_exit>

80001f8e <_close_r>:
_close_r():
80001f8e:	1141                	addi	sp,sp,-16
80001f90:	c422                	sw	s0,8(sp)
80001f92:	842a                	mv	s0,a0
80001f94:	852e                	mv	a0,a1
80001f96:	8001aa23          	sw	zero,-2028(gp) # 90000074 <errno>
80001f9a:	c606                	sw	ra,12(sp)
80001f9c:	9defe0ef          	jal	ra,8000017a <_close>
80001fa0:	57fd                	li	a5,-1
80001fa2:	00f51663          	bne	a0,a5,80001fae <_close_r+0x20>
80001fa6:	8141a783          	lw	a5,-2028(gp) # 90000074 <errno>
80001faa:	c391                	beqz	a5,80001fae <_close_r+0x20>
80001fac:	c01c                	sw	a5,0(s0)
80001fae:	40b2                	lw	ra,12(sp)
80001fb0:	4422                	lw	s0,8(sp)
80001fb2:	0141                	addi	sp,sp,16
80001fb4:	8082                	ret

80001fb6 <_fstat_r>:
_fstat_r():
80001fb6:	1141                	addi	sp,sp,-16
80001fb8:	c422                	sw	s0,8(sp)
80001fba:	842a                	mv	s0,a0
80001fbc:	852e                	mv	a0,a1
80001fbe:	85b2                	mv	a1,a2
80001fc0:	8001aa23          	sw	zero,-2028(gp) # 90000074 <errno>
80001fc4:	c606                	sw	ra,12(sp)
80001fc6:	9c4fe0ef          	jal	ra,8000018a <_fstat>
80001fca:	57fd                	li	a5,-1
80001fcc:	00f51663          	bne	a0,a5,80001fd8 <_fstat_r+0x22>
80001fd0:	8141a783          	lw	a5,-2028(gp) # 90000074 <errno>
80001fd4:	c391                	beqz	a5,80001fd8 <_fstat_r+0x22>
80001fd6:	c01c                	sw	a5,0(s0)
80001fd8:	40b2                	lw	ra,12(sp)
80001fda:	4422                	lw	s0,8(sp)
80001fdc:	0141                	addi	sp,sp,16
80001fde:	8082                	ret

80001fe0 <_isatty_r>:
_isatty_r():
80001fe0:	1141                	addi	sp,sp,-16
80001fe2:	c422                	sw	s0,8(sp)
80001fe4:	842a                	mv	s0,a0
80001fe6:	852e                	mv	a0,a1
80001fe8:	8001aa23          	sw	zero,-2028(gp) # 90000074 <errno>
80001fec:	c606                	sw	ra,12(sp)
80001fee:	9bafe0ef          	jal	ra,800001a8 <_isatty>
80001ff2:	57fd                	li	a5,-1
80001ff4:	00f51663          	bne	a0,a5,80002000 <_isatty_r+0x20>
80001ff8:	8141a783          	lw	a5,-2028(gp) # 90000074 <errno>
80001ffc:	c391                	beqz	a5,80002000 <_isatty_r+0x20>
80001ffe:	c01c                	sw	a5,0(s0)
80002000:	40b2                	lw	ra,12(sp)
80002002:	4422                	lw	s0,8(sp)
80002004:	0141                	addi	sp,sp,16
80002006:	8082                	ret

80002008 <_lseek_r>:
_lseek_r():
80002008:	1141                	addi	sp,sp,-16
8000200a:	c422                	sw	s0,8(sp)
8000200c:	842a                	mv	s0,a0
8000200e:	852e                	mv	a0,a1
80002010:	85b2                	mv	a1,a2
80002012:	8636                	mv	a2,a3
80002014:	8001aa23          	sw	zero,-2028(gp) # 90000074 <errno>
80002018:	c606                	sw	ra,12(sp)
8000201a:	99cfe0ef          	jal	ra,800001b6 <_lseek>
8000201e:	57fd                	li	a5,-1
80002020:	00f51663          	bne	a0,a5,8000202c <_lseek_r+0x24>
80002024:	8141a783          	lw	a5,-2028(gp) # 90000074 <errno>
80002028:	c391                	beqz	a5,8000202c <_lseek_r+0x24>
8000202a:	c01c                	sw	a5,0(s0)
8000202c:	40b2                	lw	ra,12(sp)
8000202e:	4422                	lw	s0,8(sp)
80002030:	0141                	addi	sp,sp,16
80002032:	8082                	ret

80002034 <memchr>:
memchr():
80002034:	0ff5f593          	zext.b	a1,a1
80002038:	962a                	add	a2,a2,a0
8000203a:	00c51463          	bne	a0,a2,80002042 <memchr+0xe>
8000203e:	4501                	li	a0,0
80002040:	8082                	ret
80002042:	00054783          	lbu	a5,0(a0)
80002046:	feb78de3          	beq	a5,a1,80002040 <memchr+0xc>
8000204a:	0505                	addi	a0,a0,1
8000204c:	b7fd                	j	8000203a <memchr+0x6>

8000204e <__malloc_lock>:
__malloc_lock():
8000204e:	8082                	ret

80002050 <__malloc_unlock>:
__malloc_unlock():
80002050:	8082                	ret

80002052 <_read_r>:
_read_r():
80002052:	1141                	addi	sp,sp,-16
80002054:	c422                	sw	s0,8(sp)
80002056:	842a                	mv	s0,a0
80002058:	852e                	mv	a0,a1
8000205a:	85b2                	mv	a1,a2
8000205c:	8636                	mv	a2,a3
8000205e:	8001aa23          	sw	zero,-2028(gp) # 90000074 <errno>
80002062:	c606                	sw	ra,12(sp)
80002064:	956fe0ef          	jal	ra,800001ba <_read>
80002068:	57fd                	li	a5,-1
8000206a:	00f51663          	bne	a0,a5,80002076 <_read_r+0x24>
8000206e:	8141a783          	lw	a5,-2028(gp) # 90000074 <errno>
80002072:	c391                	beqz	a5,80002076 <_read_r+0x24>
80002074:	c01c                	sw	a5,0(s0)
80002076:	40b2                	lw	ra,12(sp)
80002078:	4422                	lw	s0,8(sp)
8000207a:	0141                	addi	sp,sp,16
8000207c:	8082                	ret

8000207e <_raise_r>:
_raise_r():
8000207e:	1101                	addi	sp,sp,-32
80002080:	cc22                	sw	s0,24(sp)
80002082:	ce06                	sw	ra,28(sp)
80002084:	47fd                	li	a5,31
80002086:	842a                	mv	s0,a0
80002088:	00b7f963          	bgeu	a5,a1,8000209a <_raise_r+0x1c>
8000208c:	47d9                	li	a5,22
8000208e:	c11c                	sw	a5,0(a0)
80002090:	557d                	li	a0,-1
80002092:	40f2                	lw	ra,28(sp)
80002094:	4462                	lw	s0,24(sp)
80002096:	6105                	addi	sp,sp,32
80002098:	8082                	ret
8000209a:	417c                	lw	a5,68(a0)
8000209c:	862e                	mv	a2,a1
8000209e:	c791                	beqz	a5,800020aa <_raise_r+0x2c>
800020a0:	00259713          	slli	a4,a1,0x2
800020a4:	97ba                	add	a5,a5,a4
800020a6:	4398                	lw	a4,0(a5)
800020a8:	eb19                	bnez	a4,800020be <_raise_r+0x40>
800020aa:	8522                	mv	a0,s0
800020ac:	c632                	sw	a2,12(sp)
800020ae:	2095                	jal	80002112 <_getpid_r>
800020b0:	85aa                	mv	a1,a0
800020b2:	8522                	mv	a0,s0
800020b4:	4462                	lw	s0,24(sp)
800020b6:	4632                	lw	a2,12(sp)
800020b8:	40f2                	lw	ra,28(sp)
800020ba:	6105                	addi	sp,sp,32
800020bc:	a035                	j	800020e8 <_kill_r>
800020be:	4685                	li	a3,1
800020c0:	4501                	li	a0,0
800020c2:	fcd708e3          	beq	a4,a3,80002092 <_raise_r+0x14>
800020c6:	56fd                	li	a3,-1
800020c8:	00d71663          	bne	a4,a3,800020d4 <_raise_r+0x56>
800020cc:	47d9                	li	a5,22
800020ce:	c01c                	sw	a5,0(s0)
800020d0:	4505                	li	a0,1
800020d2:	b7c1                	j	80002092 <_raise_r+0x14>
800020d4:	852e                	mv	a0,a1
800020d6:	0007a023          	sw	zero,0(a5) # 1000 <__stack_size+0x800>
800020da:	9702                	jalr	a4
800020dc:	4501                	li	a0,0
800020de:	bf55                	j	80002092 <_raise_r+0x14>

800020e0 <raise>:
raise():
800020e0:	85aa                	mv	a1,a0
800020e2:	8081a503          	lw	a0,-2040(gp) # 90000068 <_impure_ptr>
800020e6:	bf61                	j	8000207e <_raise_r>

800020e8 <_kill_r>:
_kill_r():
800020e8:	1141                	addi	sp,sp,-16
800020ea:	c422                	sw	s0,8(sp)
800020ec:	842a                	mv	s0,a0
800020ee:	852e                	mv	a0,a1
800020f0:	85b2                	mv	a1,a2
800020f2:	8001aa23          	sw	zero,-2028(gp) # 90000074 <errno>
800020f6:	c606                	sw	ra,12(sp)
800020f8:	8b4fe0ef          	jal	ra,800001ac <_kill>
800020fc:	57fd                	li	a5,-1
800020fe:	00f51663          	bne	a0,a5,8000210a <_kill_r+0x22>
80002102:	8141a783          	lw	a5,-2028(gp) # 90000074 <errno>
80002106:	c391                	beqz	a5,8000210a <_kill_r+0x22>
80002108:	c01c                	sw	a5,0(s0)
8000210a:	40b2                	lw	ra,12(sp)
8000210c:	4422                	lw	s0,8(sp)
8000210e:	0141                	addi	sp,sp,16
80002110:	8082                	ret

80002112 <_getpid_r>:
_getpid_r():
80002112:	892fe06f          	j	800001a4 <_getpid>
